Archive member included because of file (symbol)

c:/NXP/bstudio_nxp/sdk/JN-SW-4168/Components/Library\libOS_JN516x.a(os.o)
                              c:/NXP/bstudio_nxp/workspace/JN-AN-1171-ZigBee-LightLink-Demo/Light_ExtendedColorLight/Build/os_gen.o (symbol from plugin) (os_vStart)
c:/NXP/bstudio_nxp/sdk/JN-SW-4168/Components/Library\libOS_JN516x.a(os_contirq_JN516x.o)
                              c:/NXP/bstudio_nxp/workspace/JN-AN-1171-ZigBee-LightLink-Demo/Light_ExtendedColorLight/Build/os_irq.o (os_UnclaimedException_W)
c:/NXP/bstudio_nxp/sdk/JN-SW-4168/Components/Library\libPWRM_JN516x.a(pwrm.o)
                              c:/NXP/bstudio_nxp/workspace/JN-AN-1171-ZigBee-LightLink-Demo/Light_ExtendedColorLight/Build/app_start_light.o (symbol from plugin) (PWRM_vInit)
c:/NXP/bstudio_nxp/sdk/JN-SW-4168/Components/Library\libPWRM_JN516x.a(pwrm_setjmp_JN516x.o)
                              pwrm.o (symbol from plugin) (setjmp)
c:/NXP/bstudio_nxp/sdk/JN-SW-4168/Components/Library\libPWRM_JN516x.a(pwrm_cold_start.o)
                              (AppColdStart)
c:/NXP/bstudio_nxp/sdk/JN-SW-4168/Components/Library\libPWRM_JN516x.a(pwrm_warm_start.o)
                              (AppWarmStart)
c:/NXP/bstudio_nxp/sdk/JN-SW-4168/Components/Library\libAES_SW_JN516x.a(aes_sw_mmo.o)
                              c:/NXP/bstudio_nxp/workspace/JN-AN-1171-ZigBee-LightLink-Demo/Light_ExtendedColorLight/Build/OTA.o (symbol from plugin) (AESSW_vMMOBlockUpdate)
c:/NXP/bstudio_nxp/sdk/JN-SW-4168/Components/Library\libPDUM_JN516x.a(pdum_nwk.o)
                              c:/NXP/bstudio_nxp/workspace/JN-AN-1171-ZigBee-LightLink-Demo/Light_ExtendedColorLight/Build/pdum_gen.o (symbol from plugin) (pdum_vNPduInit)
c:/NXP/bstudio_nxp/sdk/JN-SW-4168/Components/Library\libPDUM_JN516x.a(pdum_apl.o)
                              c:/NXP/bstudio_nxp/workspace/JN-AN-1171-ZigBee-LightLink-Demo/Light_ExtendedColorLight/Build/app_ota_client.o (symbol from plugin) (PDUM_u16APduInstanceReadNBO)
c:/NXP/bstudio_nxp/sdk/JN-SW-4168/Components/Library\libPDUM_JN516x.a(pdum.o)
                              pdum_nwk.o (symbol from plugin) (PDUM_u16SizeNBO)
c:/NXP/bstudio_nxp/sdk/JN-SW-4168/Components/Library\libZPSAPL_JN516x.a(zps_apl_af.o)
                              c:/NXP/bstudio_nxp/workspace/JN-AN-1171-ZigBee-LightLink-Demo/Light_ExtendedColorLight/Build/zpr_light_node.o (symbol from plugin) (ZPS_eAplAfInit)
c:/NXP/bstudio_nxp/sdk/JN-SW-4168/Components/Library\libZPSAPL_JN516x.a(zps_apl_af_apsde.o)
                              c:/NXP/bstudio_nxp/workspace/JN-AN-1171-ZigBee-LightLink-Demo/Light_ExtendedColorLight/Build/zps_gen.o (symbol from plugin) (zps_vHandleApsdeDataFragIndNotSupported)
c:/NXP/bstudio_nxp/sdk/JN-SW-4168/Components/Library\libZPSAPL_JN516x.a(zps_apl_task.o)
                              zps_apl_af_apsde.o (symbol from plugin) (zps_vAplAfPostEvent)
c:/NXP/bstudio_nxp/sdk/JN-SW-4168/Components/Library\libZPSAPL_JN516x.a(zps_apl_apsde.o)
                              zps_apl_task.o (symbol from plugin) (ZPS_vAplRegisterApsdeDcfmIndCallbacks)
c:/NXP/bstudio_nxp/sdk/JN-SW-4168/Components/Library\libZPSAPL_JN516x.a(zps_apl_apsme.o)
                              zps_apl_task.o (symbol from plugin) (ZPS_vAplRegisterApsmeDcfmIndCallbacks)
c:/NXP/bstudio_nxp/sdk/JN-SW-4168/Components/Library\libZPSAPL_JN516x.a(zps_apl_aps_nlde.o)
                              c:/NXP/bstudio_nxp/workspace/JN-AN-1171-ZigBee-LightLink-Demo/Light_ExtendedColorLight/Build/OTA_client.o (symbol from plugin) (ZPS_vRunningCRC32)
c:/NXP/bstudio_nxp/sdk/JN-SW-4168/Components/Library\libZPSAPL_JN516x.a(zps_apl_sec.o)
                              zps_apl_task.o (symbol from plugin) (zps_psFindKeyDescr)
c:/NXP/bstudio_nxp/sdk/JN-SW-4168/Components/Library\libZPSAPL_JN516x.a(zps_apl_aib.o)
                              c:/NXP/bstudio_nxp/workspace/JN-AN-1171-ZigBee-LightLink-Demo/Light_ExtendedColorLight/Build/app_light_commission_task.o (symbol from plugin) (zps_psAplAibGetAib)
c:/NXP/bstudio_nxp/sdk/JN-SW-4168/Components/Library\libZPSAPL_JN516x.a(zps_apl_zdo_nwkmanager.o)
                              zps_apl_apsme.o (symbol from plugin) (zps_vAplSaveRecord)
c:/NXP/bstudio_nxp/sdk/JN-SW-4168/Components/Library\libZPSAPL_JN516x.a(zps_apl_zdo_handle_zdp_event.o)
                              zps_apl_task.o (symbol from plugin) (zps_bAplZdoHandleZdpEvent)
c:/NXP/bstudio_nxp/sdk/JN-SW-4168/Components/Library\libZPSAPL_JN516x.a(zps_apl_zdo_trust_center.o)
                              zps_apl_sec.o (symbol from plugin) (zps_eAplTrustCenterFindDevice)
c:/NXP/bstudio_nxp/sdk/JN-SW-4168/Components/Library\libZPSAPL_JN516x.a(zps_apl_zdo_common.o)
                              zps_apl_zdo_nwkmanager.o (symbol from plugin) (zps_eAplZdoNlmeleaveWrapper)
c:/NXP/bstudio_nxp/sdk/JN-SW-4168/Components/Library\libZPSAPL_JN516x.a(zps_apl_zdo_group.o)
                              c:/NXP/bstudio_nxp/workspace/JN-AN-1171-ZigBee-LightLink-Demo/Light_ExtendedColorLight/Build/GroupsTableManager.o (symbol from plugin) (zps_eAplZdoGroupEndpointAdd)
c:/NXP/bstudio_nxp/sdk/JN-SW-4168/Components/Library\libZPSAPL_JN516x.a(zps_apl_zdo_default_server.o)
                              c:/NXP/bstudio_nxp/workspace/JN-AN-1171-ZigBee-LightLink-Demo/Light_ExtendedColorLight/Build/zps_gen.o (symbol from plugin) (zps_vAplZdoDefaultServerInit)
c:/NXP/bstudio_nxp/sdk/JN-SW-4168/Components/Library\libZPSAPL_JN516x.a(zps_apl_mac_isr.o)
                              zps_apl_task.o (symbol from plugin) (u32DataQueueCount)
c:/NXP/bstudio_nxp/sdk/JN-SW-4168/Components/Library\libZPSAPL_JN516x.a(zps_apl_zdo_nwk_addr_server.o)
                              c:/NXP/bstudio_nxp/workspace/JN-AN-1171-ZigBee-LightLink-Demo/Light_ExtendedColorLight/Build/zps_gen.o (symbol from plugin) (zps_vAplZdoNwkAddrServerInit)
c:/NXP/bstudio_nxp/sdk/JN-SW-4168/Components/Library\libZPSAPL_JN516x.a(zps_apl_zdo_ieee_addr_server.o)
                              c:/NXP/bstudio_nxp/workspace/JN-AN-1171-ZigBee-LightLink-Demo/Light_ExtendedColorLight/Build/zps_gen.o (symbol from plugin) (zps_vAplZdoIeeeAddrServerInit)
c:/NXP/bstudio_nxp/sdk/JN-SW-4168/Components/Library\libZPSAPL_JN516x.a(zps_apl_zdo_match_desc_server.o)
                              c:/NXP/bstudio_nxp/workspace/JN-AN-1171-ZigBee-LightLink-Demo/Light_ExtendedColorLight/Build/zps_gen.o (symbol from plugin) (zps_vAplZdoMatchDescServerInit)
c:/NXP/bstudio_nxp/sdk/JN-SW-4168/Components/Library\libZPSAPL_JN516x.a(zps_apl_zdo_node_desc_server.o)
                              c:/NXP/bstudio_nxp/workspace/JN-AN-1171-ZigBee-LightLink-Demo/Light_ExtendedColorLight/Build/zps_gen.o (symbol from plugin) (zps_vAplZdoNodeDescServerInit)
c:/NXP/bstudio_nxp/sdk/JN-SW-4168/Components/Library\libZPSAPL_JN516x.a(zps_apl_zdo_simple_desc_server.o)
                              c:/NXP/bstudio_nxp/workspace/JN-AN-1171-ZigBee-LightLink-Demo/Light_ExtendedColorLight/Build/zps_gen.o (symbol from plugin) (zps_vAplZdoSimpleDescServerInit)
c:/NXP/bstudio_nxp/sdk/JN-SW-4168/Components/Library\libZPSAPL_JN516x.a(zps_apl_zdo_power_desc_server.o)
                              c:/NXP/bstudio_nxp/workspace/JN-AN-1171-ZigBee-LightLink-Demo/Light_ExtendedColorLight/Build/zps_gen.o (symbol from plugin) (zps_vAplZdoPowerDescServerInit)
c:/NXP/bstudio_nxp/sdk/JN-SW-4168/Components/Library\libZPSAPL_JN516x.a(zps_apl_zdo_active_ep_server.o)
                              c:/NXP/bstudio_nxp/workspace/JN-AN-1171-ZigBee-LightLink-Demo/Light_ExtendedColorLight/Build/zps_gen.o (symbol from plugin) (zps_vAplZdoActiveEpServerInit)
c:/NXP/bstudio_nxp/sdk/JN-SW-4168/Components/Library\libZPSAPL_JN516x.a(zps_apl_zdo_device_annce_server.o)
                              c:/NXP/bstudio_nxp/workspace/JN-AN-1171-ZigBee-LightLink-Demo/Light_ExtendedColorLight/Build/zps_gen.o (symbol from plugin) (zps_vAplZdoDeviceAnnceServerInit)
c:/NXP/bstudio_nxp/sdk/JN-SW-4168/Components/Library\libZPSAPL_JN516x.a(zps_apl_zdo_permit_joining_server.o)
                              c:/NXP/bstudio_nxp/workspace/JN-AN-1171-ZigBee-LightLink-Demo/Light_ExtendedColorLight/Build/zps_gen.o (symbol from plugin) (zps_vAplZdoPermitJoiningServerInit)
c:/NXP/bstudio_nxp/sdk/JN-SW-4168/Components/Library\libZPSAPL_JN516x.a(zps_apl_zdo_system_server_discovery_server.o)
                              c:/NXP/bstudio_nxp/workspace/JN-AN-1171-ZigBee-LightLink-Demo/Light_ExtendedColorLight/Build/zps_gen.o (symbol from plugin) (zps_vAplZdoSystemServerDiscoveryServerInit)
c:/NXP/bstudio_nxp/sdk/JN-SW-4168/Components/Library\libZPSAPL_JN516x.a(zps_apl_zdo_mgmt_lqi_server.o)
                              c:/NXP/bstudio_nxp/workspace/JN-AN-1171-ZigBee-LightLink-Demo/Light_ExtendedColorLight/Build/zps_gen.o (symbol from plugin) (zps_vAplZdoMgmtLqiServerInit)
c:/NXP/bstudio_nxp/sdk/JN-SW-4168/Components/Library\libZPSAPL_JN516x.a(zps_apl_zdo_mgmt_rtg_server.o)
                              c:/NXP/bstudio_nxp/workspace/JN-AN-1171-ZigBee-LightLink-Demo/Light_ExtendedColorLight/Build/zps_gen.o (symbol from plugin) (zps_vAplZdoMgmtRtgServerInit)
c:/NXP/bstudio_nxp/sdk/JN-SW-4168/Components/Library\libZPSAPL_JN516x.a(zps_apl_zdo_mgmt_leave_server.o)
                              c:/NXP/bstudio_nxp/workspace/JN-AN-1171-ZigBee-LightLink-Demo/Light_ExtendedColorLight/Build/zps_gen.o (symbol from plugin) (zps_vAplZdoMgmtLeaveServerInit)
c:/NXP/bstudio_nxp/sdk/JN-SW-4168/Components/Library\libZPSAPL_JN516x.a(zps_apl_zdo_mgmt_nwk_update_server.o)
                              c:/NXP/bstudio_nxp/workspace/JN-AN-1171-ZigBee-LightLink-Demo/Light_ExtendedColorLight/Build/zps_gen.o (symbol from plugin) (zps_vAplZdoMgmtNWKUpdateServerInit)
c:/NXP/bstudio_nxp/sdk/JN-SW-4168/Components/Library\libZPSAPL_JN516x.a(zps_apl_zdo_bound_data_request_manager.o)
                              zps_apl_af.o (symbol from plugin) (zps_eAplZdoBdrmRequestSend)
c:/NXP/bstudio_nxp/sdk/JN-SW-4168/Components/Library\libZPSAPL_JN516x.a(zps_apl_zdo_nwkmanager_client.o)
                              c:/NXP/bstudio_nxp/workspace/JN-AN-1171-ZigBee-LightLink-Demo/Light_ExtendedColorLight/Build/zps_gen.o (symbol from plugin) (zps_vAplZdoZdoClientInit)
c:/NXP/bstudio_nxp/sdk/JN-SW-4168/Components/Library\libZPSAPL_JN516x.a(zps_apl_zdp_apsde_req.o)
                              zps_apl_zdo_nwkmanager_client.o (symbol from plugin) (zps_eAplZdpApsdeReqInternal)
c:/NXP/bstudio_nxp/sdk/JN-SW-4168/Components/Library\libZPSAPL_JN516x.a(zps_apl_zdp_device_annce.o)
                              c:/NXP/bstudio_nxp/workspace/JN-AN-1171-ZigBee-LightLink-Demo/Light_ExtendedColorLight/Build/zpr_light_node.o (symbol from plugin) (zps_eAplZdpDeviceAnnceRequest)
c:/NXP/bstudio_nxp/sdk/JN-SW-4168/Components/Library\libZPSAPL_JN516x.a(zps_apl_zdp_ieee_addr_req.o)
                              c:/NXP/bstudio_nxp/workspace/JN-AN-1171-ZigBee-LightLink-Demo/Light_ExtendedColorLight/Build/app_ota_client.o (symbol from plugin) (zps_eAplZdpIeeeAddrRequest)
c:/NXP/bstudio_nxp/sdk/JN-SW-4168/Components/Library\libZPSAPL_JN516x.a(zps_apl_zdp_match_desc_req.o)
                              c:/NXP/bstudio_nxp/workspace/JN-AN-1171-ZigBee-LightLink-Demo/Light_ExtendedColorLight/Build/app_ota_client.o (symbol from plugin) (zps_eAplZdpMatchDescRequest)
c:/NXP/bstudio_nxp/sdk/JN-SW-4168/Components/Library\libZPSAPL_JN516x.a(zps_apl_zdp_nwk_addr_rsp.o)
                              zps_apl_zdo_nwk_addr_server.o (symbol from plugin) (zps_eZdpNwkAddrResponse)
c:/NXP/bstudio_nxp/sdk/JN-SW-4168/Components/Library\libZPSAPL_JN516x.a(zps_apl_zdp_ieee_addr_rsp.o)
                              zps_apl_zdo_ieee_addr_server.o (symbol from plugin) (zps_eZdpIeeeAddrResponse)
c:/NXP/bstudio_nxp/sdk/JN-SW-4168/Components/Library\libZPSAPL_JN516x.a(zps_apl_zdp_node_desc_rsp.o)
                              zps_apl_zdo_node_desc_server.o (symbol from plugin) (zps_eZdpNodeDescResponse)
c:/NXP/bstudio_nxp/sdk/JN-SW-4168/Components/Library\libZPSAPL_JN516x.a(zps_apl_zdp_power_desc_rsp.o)
                              zps_apl_zdo_power_desc_server.o (symbol from plugin) (zps_eZdpPowerDescResponse)
c:/NXP/bstudio_nxp/sdk/JN-SW-4168/Components/Library\libZPSAPL_JN516x.a(zps_apl_zdp_simple_desc_rsp.o)
                              zps_apl_zdo_simple_desc_server.o (symbol from plugin) (zps_eZdpSimpleDescResponse)
c:/NXP/bstudio_nxp/sdk/JN-SW-4168/Components/Library\libZPSAPL_JN516x.a(zps_apl_zdp_active_ep_rsp.o)
                              zps_apl_zdo_active_ep_server.o (symbol from plugin) (zps_eZdpActiveEpResponse)
c:/NXP/bstudio_nxp/sdk/JN-SW-4168/Components/Library\libZPSAPL_JN516x.a(zps_apl_zdp_match_desc_rsp.o)
                              zps_apl_zdo_match_desc_server.o (symbol from plugin) (zps_eZdpMatchDescResponse)
c:/NXP/bstudio_nxp/sdk/JN-SW-4168/Components/Library\libZPSAPL_JN516x.a(zps_apl_zdp_system_server_discovery_rsp.o)
                              zps_apl_zdo_system_server_discovery_server.o (symbol from plugin) (zps_eZdpSystemServerDiscoveryResponse)
c:/NXP/bstudio_nxp/sdk/JN-SW-4168/Components/Library\libZPSAPL_JN516x.a(zps_apl_zdp_mgmt_lqi_rsp.o)
                              zps_apl_zdo_mgmt_lqi_server.o (symbol from plugin) (zps_eAplZdpMgmtLqiResponse)
c:/NXP/bstudio_nxp/sdk/JN-SW-4168/Components/Library\libZPSAPL_JN516x.a(zps_apl_zdp_mgmt_rtg_rsp.o)
                              zps_apl_zdo_mgmt_rtg_server.o (symbol from plugin) (zps_eAplZdpMgmtRtgResponse)
c:/NXP/bstudio_nxp/sdk/JN-SW-4168/Components/Library\libZPSAPL_JN516x.a(zps_apl_zdp_mgmt_leave_rsp.o)
                              zps_apl_zdo_mgmt_leave_server.o (symbol from plugin) (zps_eZdpMgmtLeaveResponse)
c:/NXP/bstudio_nxp/sdk/JN-SW-4168/Components/Library\libZPSAPL_JN516x.a(zps_apl_zdp_mgmt_nwk_update_notify_rsp.o)
                              zps_apl_zdo_mgmt_nwk_update_server.o (symbol from plugin) (zps_eZdpMgmtNwkUpdateNotifyResponse)
c:/NXP/bstudio_nxp/sdk/JN-SW-4168/Components/Library\libZPSAPL_JN516x.a(zps_apl_zdp_mgmt_permit_joining_rsp.o)
                              zps_apl_zdo_permit_joining_server.o (symbol from plugin) (zps_eZdpMgmtPermitJoiningResponse)
c:/NXP/bstudio_nxp/sdk/JN-SW-4168/Components/Library\libRandom_JN516x.a(rnd_main.o)
                              zps_apl_af.o (symbol from plugin) (RND_vInit)
c:/NXP/bstudio_nxp/sdk/JN-SW-4168/Components/Library\libPDM_EEPROM_JN516x.a(PDM_Create.o)
                              c:/NXP/bstudio_nxp/workspace/JN-AN-1171-ZigBee-LightLink-Demo/Light_ExtendedColorLight/Build/app_start_light.o (symbol from plugin) (PDM_eInitialise)
c:/NXP/bstudio_nxp/sdk/JN-SW-4168/Components/Library\libPDM_EEPROM_JN516x.a(PDM_EEPROMsegmentStatus.o)
                              PDM_Create.o (symbol from plugin) (bPDM_DoesEEPROMsegmentContainFileSystemHeader)
c:/NXP/bstudio_nxp/sdk/JN-SW-4168/Components/Library\libPDM_EEPROM_JN516x.a(PDM_FileSystem.o)
                              c:/NXP/bstudio_nxp/workspace/JN-AN-1171-ZigBee-LightLink-Demo/Light_ExtendedColorLight/Build/zpr_light_node.o (symbol from plugin) (u8PDM_CalculateFileSystemCapacity)
c:/NXP/bstudio_nxp/sdk/JN-SW-4168/Components/Library\libPDM_EEPROM_JN516x.a(PDM_FileSystemData.o)
                              c:/NXP/bstudio_nxp/workspace/JN-AN-1171-ZigBee-LightLink-Demo/Light_ExtendedColorLight/Build/app_scenes.o (symbol from plugin) (PDM_eReadDataFromRecord)
c:/NXP/bstudio_nxp/sdk/JN-SW-4168/Components/Library\libPDM_EEPROM_JN516x.a(PDM_FileSystemDelete.o)
                              c:/NXP/bstudio_nxp/workspace/JN-AN-1171-ZigBee-LightLink-Demo/Light_ExtendedColorLight/Build/zpr_light_node.o (symbol from plugin) (PDM_vDeleteDataRecord)
c:/NXP/bstudio_nxp/sdk/JN-SW-4168/Components/Library\libPDM_EEPROM_JN516x.a(PDM_FileSystemGenerate.o)
                              PDM_Create.o (symbol from plugin) (vPDM_GenerateCleanFileSystem)
c:/NXP/bstudio_nxp/sdk/JN-SW-4168/Components/Library\libPDM_EEPROM_JN516x.a(PDM_FileSystemHeaderAccessFunctions.o)
                              PDM_FileSystemData.o (symbol from plugin) (ePDM_ReadFileSystemHeaderCopyIndex)
c:/NXP/bstudio_nxp/sdk/JN-SW-4168/Components/Library\libPDM_EEPROM_JN516x.a(PDM_FileSystemHeaderRepair.o)
                              PDM_FileSystemGenerate.o (symbol from plugin) (iPDM_RepairFileSystemRecord)
c:/NXP/bstudio_nxp/sdk/JN-SW-4168/Components/Library\libPDM_EEPROM_JN516x.a(PDM_FileSystemHeaderVerify.o)
                              PDM_FileSystemHeaderRepair.o (symbol from plugin) (iPDM_ReCalculateWearCountAndChecksumAndWriteFileSystemHeader)
c:/NXP/bstudio_nxp/sdk/JN-SW-4168/Components/Library\libPDM_EEPROM_JN516x.a(PDM_FileSystemMove.o)
                              PDM_FileSystemDelete.o (symbol from plugin) (vPDM_MoveAllDataFromListToList)
c:/NXP/bstudio_nxp/sdk/JN-SW-4168/Components/Library\libPDM_EEPROM_JN516x.a(PDM_FileSystemVerify.o)
                              PDM_FileSystemGenerate.o (symbol from plugin) (iPDM_VerifyDataSequenceWithBufferId)
c:/NXP/bstudio_nxp/sdk/JN-SW-4168/Components/Library\libPDM_EEPROM_JN516x.a(PDM_ImageBitmapReconstruct.o)
                              PDM_FileSystemGenerate.o (symbol from plugin) (iPDM_ReconstructValidImageBitmap)
c:/NXP/bstudio_nxp/sdk/JN-SW-4168/Components/Library\libPDM_EEPROM_JN516x.a(PDM_SearchAndListOrder.o)
                              PDM_FileSystemGenerate.o (symbol from plugin) (vPDM_AddFileSystemElementToListInAscendingWearCountOrder)
c:/NXP/bstudio_nxp/sdk/JN-SW-4168/Components/Library\libPDM_EEPROM_JN516x.a(PDM_Segment.o)
                              PDM_FileSystemData.o (symbol from plugin) (iPDM_WriteSegmentHeaderAndData)
c:/NXP/bstudio_nxp/sdk/JN-SW-4168/Components/Library\libPDM_EEPROM_JN516x.a(PDM_SegmentData.o)
                              PDM_FileSystemVerify.o (symbol from plugin) (iPDM_ReadUserDataFromFileSystemRecord)
c:/NXP/bstudio_nxp/sdk/JN-SW-4168/Components/Library\libPDM_EEPROM_JN516x.a(PDM_SegmentReplace.o)
                              PDM_FileSystemGenerate.o (symbol from plugin) (iPDM_ReconstructReplacedDataTable)
c:/NXP/bstudio_nxp/sdk/JN-SW-4168/Components/Library\libPDM_EEPROM_JN516x.a(PDM_SegmentSequenceExtendDelete.o)
                              PDM_FileSystemData.o (symbol from plugin) (bPDM_IsSequenceAppended)
c:/NXP/bstudio_nxp/sdk/JN-SW-4168/Components/Library\libPDM_EEPROM_JN516x.a(PDM_SegmentSequenceExtendReconstruct.o)
                              PDM_FileSystemGenerate.o (symbol from plugin) (iPDM_ReconstructExtendedSegmentSequence)
c:/NXP/bstudio_nxp/sdk/JN-SW-4168/Components/Library\libPDM_EEPROM_JN516x.a(PDM_SegmentSequenceSave.o)
                              c:/NXP/bstudio_nxp/workspace/JN-AN-1171-ZigBee-LightLink-Demo/Light_ExtendedColorLight/Build/app_scenes.o (symbol from plugin) (PDM_eSaveRecordData)
c:/NXP/bstudio_nxp/sdk/JN-SW-4168/Components/Library\libPDM_EEPROM_JN516x.a(PDM_slist.o)
                              PDM_Create.o (symbol from plugin) (vSLISTinitialise)
c:/NXP/bstudio_nxp/sdk/JN-SW-4168/Components/Library\libPDM_EEPROM_JN516x.a(PDM_WearLevelling.o)
                              PDM_FileSystem.o (symbol from plugin) (iPDM_GetWearLevelledBuffer)
c:/NXP/bstudio_nxp/sdk/JN-SW-4168/Components/Library\libPDM_EEPROM_JN516x.a(PDM_Bitmap.o)
                              PDM_FileSystemGenerate.o (symbol from plugin) (vPDM_ReconstructValidBitmap)
c:/NXP/bstudio_nxp/sdk/JN-SW-4168/Components/Library\libPDM_EEPROM_JN516x.a(PDM_EEPROMheaderAccessFunctions.o)
                              PDM_FileSystemDelete.o (symbol from plugin) (vPDM_SetEEPROMandFileSystemValidState)
c:/NXP/bstudio_nxp/sdk/JN-SW-4168/Components/Library\libPDM_EEPROM_JN516x.a(PDM_EEPROMheaderReadAndWrite.o)
                              PDM_EEPROMsegmentStatus.o (symbol from plugin) (iPDM_ReadSegmentHeaderDataFromEEPROMsegment)
c:/NXP/bstudio_nxp/sdk/JN-SW-4168/Components/Library\libPDM_EEPROM_JN516x.a(PDM_EEPROMReadAndWrite.o)
                              PDM_FileSystemGenerate.o (symbol from plugin) (iPDM_ReadUserDataFromEEPROMsegment)
c:/NXP/bstudio_nxp/sdk/JN-SW-4168/Components/Library\libPDM_EEPROM_JN516x.a(PDM_FileSystemHeaderChecksum.o)
                              PDM_FileSystemHeaderVerify.o (symbol from plugin) (u16PDM_CalculateRecordChecksum)
c:/NXP/bstudio_nxp/sdk/JN-SW-4168/Components/Library\libPDM_EEPROM_JN516x.a(PDM_SegmentSequenceExtendFilter.o)
                              PDM_SegmentSequenceExtendReconstruct.o (symbol from plugin) (vPDM_FilterDuplicateAppendedSegmentsFromList)
c:/NXP/bstudio_nxp/sdk/JN-SW-4168/Components/Library\libPDM_EEPROM_JN516x.a(PDM_EEPROM.o)
                              PDM_EEPROMheaderReadAndWrite.o (symbol from plugin) (bPDM_InitialiseEEPROM)
c:/NXP/bstudio_nxp/sdk/JN-SW-4168/Components/Library\libDBG_JN516x.a(dbg.o)
                              c:/NXP/bstudio_nxp/workspace/JN-AN-1171-ZigBee-LightLink-Demo/Light_ExtendedColorLight/Build/app_start_light.o (symbol from plugin) (DBG_vReset)
c:/NXP/bstudio_nxp/sdk/JN-SW-4168/Components/Library\libDBG_JN516x.a(dbg_uart.o)
                              c:/NXP/bstudio_nxp/workspace/JN-AN-1171-ZigBee-LightLink-Demo/Light_ExtendedColorLight/Build/app_start_light.o (symbol from plugin) (DBG_vUartInit)
c:/NXP/bstudio_nxp/sdk/JN-SW-4168/Components/Library\libDBG_JN516x.a(dbg_exceptions.o)
                              c:/NXP/bstudio_nxp/workspace/JN-AN-1171-ZigBee-LightLink-Demo/Light_ExtendedColorLight/Build/app_start_light.o (symbol from plugin) (DBG_vDumpStack)
c:/NXP/bstudio_nxp/sdk/JN-SW-4168/Components/Library\libZPSZLL_JN516x.a(zps_apl_zll.o)
                              c:/NXP/bstudio_nxp/workspace/JN-AN-1171-ZigBee-LightLink-Demo/Light_ExtendedColorLight/Build/zps_gen.o (symbol from plugin) (zps_vAfInterPanInit)
c:/NXP/bstudio_nxp/sdk/JN-SW-4168/Components/Library\libZPSZLL_JN516x.a(zps_apl_options.o)
                              zps_apl_zll.o (symbol from plugin) (ZPS_vRegisterInterPanHandlers)
c:/NXP/bstudio_nxp/sdk/JN-SW-4168/Components/Library\libZPSNWK_JN516x.a(zps_nwk_dcim.o)
                              zps_apl_task.o (symbol from plugin) (ZPS_vNwkRegisterNlmeDcfmIndCallbacks)
c:/NXP/bstudio_nxp/sdk/JN-SW-4168/Components/Library\libZPSNWK_JN516x.a(zps_nwk_lib.o)
                              c:/NXP/bstudio_nxp/workspace/JN-AN-1171-ZigBee-LightLink-Demo/Light_ExtendedColorLight/Build/app_light_commission_task.o (symbol from plugin) (zps_vInitBeaconPayload)
c:/NXP/bstudio_nxp/sdk/JN-SW-4168/Components/Library\libZPSNWK_JN516x.a(zps_nwk_lkst.o)
                              zps_apl_mac_isr.o (symbol from plugin) (zps_u8CalcLinkCost)
c:/NXP/bstudio_nxp/sdk/JN-SW-4168/Components/Library\libZPSNWK_JN516x.a(zps_nwk_main.o)
                              zps_apl_zdo_nwkmanager.o (symbol from plugin) (ZPS_pvNwkCtor)
c:/NXP/bstudio_nxp/sdk/JN-SW-4168/Components/Library\libZPSNWK_JN516x.a(zps_nwk_maint.o)
                              zps_apl_sec.o (symbol from plugin) (zps_bNwkFindAddIeeeAddr)
c:/NXP/bstudio_nxp/sdk/JN-SW-4168/Components/Library\libZPSNWK_JN516x.a(zps_nwk_mcps.o)
                              zps_nwk_main.o (symbol from plugin) (zps_vNwkMcpsMgrInit)
c:/NXP/bstudio_nxp/sdk/JN-SW-4168/Components/Library\libZPSNWK_JN516x.a(zps_nwk_mlme.o)
                              zps_apl_task.o (symbol from plugin) (ZPS_vNwkHandleMlmeDcfmInd)
c:/NXP/bstudio_nxp/sdk/JN-SW-4168/Components/Library\libZPSNWK_JN516x.a(zps_nwk_nib.o)
                              c:/NXP/bstudio_nxp/workspace/JN-AN-1171-ZigBee-LightLink-Demo/Light_ExtendedColorLight/Build/zpr_light_node.o (symbol from plugin) (ZPS_psNwkNibGetHandle)
c:/NXP/bstudio_nxp/sdk/JN-SW-4168/Components/Library\libZPSNWK_JN516x.a(zps_nwk_nlde.o)
                              zps_apl_af_apsde.o (symbol from plugin) (ZPS_vNwkHandleNldeReqRsp)
c:/NXP/bstudio_nxp/sdk/JN-SW-4168/Components/Library\libZPSNWK_JN516x.a(zps_nwk_nlme.o)
                              zps_apl_apsde.o (symbol from plugin) (ZPS_vNwkHandleNlmeReqRsp)
c:/NXP/bstudio_nxp/sdk/JN-SW-4168/Components/Library\libZPSNWK_JN516x.a(zps_nwk_pmjn.o)
                              zps_nwk_main.o (symbol from plugin) (zps_vNwkPermitJoiningInit)
c:/NXP/bstudio_nxp/sdk/JN-SW-4168/Components/Library\libZPSNWK_JN516x.a(zps_nwk_rt.o)
                              zps_nwk_nib.o (symbol from plugin) (zps_vExpireOldRoutes)
c:/NXP/bstudio_nxp/sdk/JN-SW-4168/Components/Library\libZPSNWK_JN516x.a(zps_nwk_sec.o)
                              zps_apl_sec.o (symbol from plugin) (ZPS_bSecEncrypt)
c:/NXP/bstudio_nxp/sdk/JN-SW-4168/Components/Library\libZPSNWK_JN516x.a(zps_nwk_slist.o)
                              zps_nwk_mcps.o (symbol from plugin) (zps_vNwkSlistInit)
c:/NXP/bstudio_nxp/sdk/JN-SW-4168/Components/Library\libZPSNWK_JN516x.a(zps_nwk_actv_st.o)
                              zps_nwk_main.o (symbol from plugin) (zps_eNwkActvStInit)
c:/NXP/bstudio_nxp/sdk/JN-SW-4168/Components/Library\libZPSNWK_JN516x.a(zps_nwk_btt.o)
                              zps_nwk_main.o (symbol from plugin) (zps_vNwkBttMgrInit)
c:/NXP/bstudio_nxp/sdk/JN-SW-4168/Components/Library\libZPSNWK_JN516x.a(zps_nwk_disc.o)
                              zps_nwk_actv_st.o (symbol from plugin) (zps_vNwkHandleCmeNwkDiscReq)
c:/NXP/bstudio_nxp/sdk/JN-SW-4168/Components/Library\libZPSNWK_JN516x.a(zps_nwk_disc_st.o)
                              zps_nwk_main.o (symbol from plugin) (zps_eNwkDiscStInit)
c:/NXP/bstudio_nxp/sdk/JN-SW-4168/Components/Library\libZPSNWK_JN516x.a(zps_nwk_form_st.o)
                              zps_nwk_main.o (symbol from plugin) (zps_eNwkFormStInit)
c:/NXP/bstudio_nxp/sdk/JN-SW-4168/Components/Library\libZPSNWK_JN516x.a(zps_nwk_frm.o)
                              zps_nwk_mcps.o (symbol from plugin) (zps_eDefaultDataDcfm)
c:/NXP/bstudio_nxp/sdk/JN-SW-4168/Components/Library\libZPSNWK_JN516x.a(zps_nwk_idle_st.o)
                              zps_nwk_nlme.o (symbol from plugin) (zps_vNwkIdleStHandleCme)
c:/NXP/bstudio_nxp/sdk/JN-SW-4168/Components/Library\libZPSNWK_JN516x.a(zps_nwk_join.o)
                              zps_nwk_actv_st.o (symbol from plugin) (zps_vNwkHandleCmeDirectJoinReq)
c:/NXP/bstudio_nxp/sdk/JN-SW-4168/Components/Library\libZPSNWK_JN516x.a(zps_nwk_join_st.o)
                              zps_nwk_join.o (symbol from plugin) (zps_vNwkJoinStStartResponseTimer)
c:/NXP/bstudio_nxp/sdk/JN-SW-4168/Components/Library\libZPSNWK_JN516x.a(zps_nwk_leave.o)
                              zps_nwk_actv_st.o (symbol from plugin) (zps_eNwkHandleSceLeave)
c:/NXP/bstudio_nxp/sdk/JN-SW-4168/Components/Library\libZPSNWK_JN516x.a(zps_nwk_mac.o)
                              zps_nwk_maint.o (symbol from plugin) (MAC_u64GetExtAddr)
c:/NXP/bstudio_nxp/sdk/JN-SW-4168/Components/Library\libZPSNWK_JN516x.a(zps_nwk_scan.o)
                              zps_nwk_disc.o (symbol from plugin) (zps_sNwkLibSubmitScan)
c:/NXP/bstudio_nxp/sdk/JN-SW-4168/Components/Library\libZPSNWK_JN516x.a(zps_nwk_sync.o)
                              zps_nwk_actv_st.o (symbol from plugin) (zps_vNwkHandleCmeSyncReq)
c:/NXP/bstudio_nxp/sdk/JN-SW-4168/Components/Library\libZPSNWK_JN516x.a(zps_nwk_form.o)
                              zps_nwk_idle_st.o (symbol from plugin) (zps_vNwkHandleCmeIdleNwkFormReq)
c:/NXP/bstudio_nxp/sdk/JN-SW-4168/Components/Library\libRecal_JN516x.a(JN5148ReCal.o)
                              c:/NXP/bstudio_nxp/workspace/JN-AN-1171-ZigBee-LightLink-Demo/Light_ExtendedColorLight/Build/app_manage_temperature.o (symbol from plugin) (eAHI_AttemptCalibration)
c:/NXP/bstudio_nxp/sdk/JN-SW-4168/Components/Library\libMiniMac_JN5169.a(Mini_Main.o)
                              zps_apl_zdo_nwkmanager.o (symbol from plugin) (sMiniMacPib)
c:/NXP/bstudio_nxp/sdk/JN-SW-4168/Components/Library\libMiniMac_JN5169.a(Mini_Association.o)
                              zps_nwk_nib.o (symbol from plugin) (vMiniMac_PurgeAssocResp)
c:/NXP/bstudio_nxp/sdk/JN-SW-4168/Components/Library\libMiniMac_JN5169.a(Mini_Mcps.o)
                              Mini_Main.o (symbol from plugin) (psGetTxFrameBuffer)
c:/NXP/bstudio_nxp/sdk/JN-SW-4168/Components/Library\libMiniMac_JN5169.a(Mini_Running.o)
                              Mini_Association.o (symbol from plugin) (vRunningRxCallback)
c:/NXP/bstudio_nxp/sdk/JN-SW-4168/Components/Library\libMiniMac_JN5169.a(Mini_Scan.o)
                              Mini_Running.o (symbol from plugin) (vScanOrphanReceived)
c:/NXP/bstudio_nxp/sdk/JN-SW-4168/Components/Library\libMiniMac_JN5169.a(Mini_TimerServer.o)
                              Mini_Scan.o (symbol from plugin) (vTimerRestartScanTimer)
c:/NXP/bstudio_nxp/sdk/JN-SW-4168/Components/Library\libMiniMac_JN5169.a(Mini_TxRx.o)
                              Mini_Mcps.o (symbol from plugin) (vAddToTxQueue)
c:/NXP/bstudio_nxp/sdk/JN-SW-4168/Components/Library\libMiniMac_JN5169.a(Endian.o)
                              Mini_Main.o (symbol from plugin) (vFromU16ToLe)
c:/NXP/bstudio_nxp/sdk/JN-SW-4168/Components/Library\libMiniMac_JN5169.a(Mini_Poll.o)
                              Mini_Running.o (symbol from plugin) (vMiniMacPoll_CheckPollResponse)
c:/NXP/bstudio_nxp/sdk/JN-SW-4168/Components/Library\libMiniMacShim_JN516x.a(Mini_Shim.o)
                              c:/NXP/bstudio_nxp/workspace/JN-AN-1171-ZigBee-LightLink-Demo/Light_ExtendedColorLight/Build/app_light_commission_task.o (symbol from plugin) (eAppApiDefPlmeSet)
c:/NXP/bstudio_nxp/sdk/JN-SW-4168/Components/Library\libMMAC_JN5169.a(MMAC.o)
                              Mini_Main.o (symbol from plugin) (vMMAC_Enable)
c:/NXP/bstudio_nxp/sdk/JN-SW-4168/Components/Library\libMMAC_JN5169.a(MMAC_RadioInit_JN5169.o)
                              Mini_Main.o (symbol from plugin) (vMMAC_ConfigureRadio)
c:/NXP/bstudio_nxp/sdk/JN-SW-4168/Components/Library\libJPT_JN5169.a(JPT_RadioTxPowerTests.o)
                              MMAC.o (symbol from plugin) (vJPT_TxPowerAdjust)
c:/NXP/bstudio_nxp/sdk/JN-SW-4168/Components/Library\libJPT_JN5169.a(JPT_RadioSettings_JN5169.o)
                              MMAC_RadioInit_JN5169.o (symbol from plugin) (bJPT_InitRadio_JN5169)
c:/NXP/bstudio_nxp/sdk/JN-SW-4168/Components/Library\libAes_JN516x.a(AEScoprocessorAPI.o)
                              zps_nwk_sec.o (symbol from plugin) (bACI_WriteKey)
c:/NXP/bstudio_nxp/sdk/JN-SW-4168/Components/Library\libAes_JN516x.a(AEScoprocessorECB.o)
                              c:/NXP/bstudio_nxp/workspace/JN-AN-1171-ZigBee-LightLink-Demo/Light_ExtendedColorLight/Build/app_light_commission_task.o (symbol from plugin) (bACI_ECBencodeStripe)
c:/NXP/bstudio_nxp/sdk/JN-SW-4168/Components/Library\libAes_JN516x.a(AES_CCM_Star.o)
                              zps_nwk_sec.o (symbol from plugin) (vACI_OptimisedCcmStar)
c:/NXP/bstudio_nxp/sdk/JN-SW-4168/Components/Library\libHardwareApi_JN5169.a(AHI_Analogue.o)
                              c:/NXP/bstudio_nxp/workspace/JN-AN-1171-ZigBee-LightLink-Demo/Light_ExtendedColorLight/Build/app_manage_temperature.o (symbol from plugin) (bAHI_APRegulatorEnabled)
c:/NXP/bstudio_nxp/sdk/JN-SW-4168/Components/Library\libHardwareApi_JN5169.a(AHI_Dio.o)
                              c:/NXP/bstudio_nxp/workspace/JN-AN-1171-ZigBee-LightLink-Demo/Light_ExtendedColorLight/Build/app_buttons.o (symbol from plugin) (vAHI_DioSetDirection)
c:/NXP/bstudio_nxp/sdk/JN-SW-4168/Components/Library\libHardwareApi_JN5169.a(AHI_Reset.o)
                              c:/NXP/bstudio_nxp/workspace/JN-AN-1171-ZigBee-LightLink-Demo/Light_ExtendedColorLight/Build/app_start_light.o (symbol from plugin) (vAHI_SwReset)
c:/NXP/bstudio_nxp/sdk/JN-SW-4168/Components/Library\libHardwareApi_JN5169.a(AHI_System.o)
                              pwrm_cold_start.o (symbol from plugin) (u8AHI_PowerStatus)
c:/NXP/bstudio_nxp/sdk/JN-SW-4168/Components/Library\libHardwareApi_JN5169.a(AHI_Timer.o)
                              AHI_System.o (symbol from plugin) (vAHI_TimerEnable)
c:/NXP/bstudio_nxp/sdk/JN-SW-4168/Components/Library\libHardwareApi_JN5169.a(AHI_TimerInt.o)
                              AHI_System.o (symbol from plugin) (vAHI_Timer0RegisterCallback)
c:/NXP/bstudio_nxp/sdk/JN-SW-4168/Components/Library\libHardwareApi_JN5169.a(AHI_Uart.o)
                              dbg_uart.o (symbol from plugin) (vAHI_UartSetClockDivisor)
c:/NXP/bstudio_nxp/sdk/JN-SW-4168/Components/Library\libHardwareApi_JN5169.a(AHI_WakeTimer.o)
                              pwrm.o (symbol from plugin) (vAHI_WakeTimerEnable)
c:/NXP/bstudio_nxp/sdk/JN-SW-4168/Components/Library\libHardwareApi_JN5169.a(AHI_Flash.o)
                              AHI_System.o (symbol from plugin) (vAHI_FlashAndEEPROMControllerIntHandler)
c:/NXP/bstudio_nxp/sdk/JN-SW-4168/Components/Library\libHardwareApi_JN5169.a(AHI_Infrared.o)
                              AHI_TimerInt.o (symbol from plugin) (vAHI_IntHandlerInfrared)
c:/NXP/bstudio_nxp/sdk/JN-SW-4168/Components/Library\libHardwareApi_JN5169.a(InternalFlashApi.o)
                              AHI_Flash.o (symbol from plugin) (bFlashErase)
c:/NXP/bstudio_nxp/sdk/JN-SW-4168/Components/Library\libHardwareApi_JN5169.a(EEP_EEPROM.o)
                              PDM_Create.o (symbol from plugin) (u16AHI_InitialiseEEP)
c:/NXP/bstudio_nxp/sdk/JN-SW-4168/Components/Library\libHardwareApi_JN5169.a(AHI_TickTimer.o)
                              c:/NXP/bstudio_nxp/workspace/JN-AN-1171-ZigBee-LightLink-Demo/Light_ExtendedColorLight/Build/app_timer_driver.o (symbol from plugin) (vAHI_TickTimerIntPendClr)
c:/NXP/bstudio_nxp/sdk/JN-SW-4168/Components/Library\libHardwareApi_JN5169.a(AHI_Interrupt.o)
                              MMAC.o (symbol from plugin) (vAHI_InterruptSetPriority)
c:/NXP/bstudio_nxp/sdk/JN-SW-4168/Components/Library\libHardwareApi_JN5169.a(AHI_Spi.o)
                              AHI_Flash.o (symbol from plugin) (vAHI_SpiConfigure)
c:/NXP/bstudio_nxp/sdk/JN-SW-4168/Components/Library\libMicroSpecific_JN516x.a(MicroInt_ba.o)
                              Mini_Main.o (symbol from plugin) (vMicroIntEnableOnly)
c:/NXP/bstudio_nxp/sdk/JN-SW-4168/Components/Library\libMicroSpecific_JN516x.a(MicroSyscall_ba.o)
                              AHI_Reset.o (symbol from plugin) (vMicroSyscall)
c:/NXP/bstudio_nxp/sdk/JN-SW-4168/Components/Library\libBoot_JN516x.a(Heap.o)
                              (u32HeapStart)
c:/NXP/bstudio_nxp/sdk/JN-SW-4168/Components/Library\libBoot_JN516x.a(ExceptionHandler.o)
                              MMAC.o (symbol from plugin) (isr_handlers)
c:/NXP/bstudio_nxp/sdk/JN-SW-4168/Platform/DK4/Library\libBoardLib_JN516x.a(LightingBoard.o)
                              c:/NXP/bstudio_nxp/workspace/JN-AN-1171-ZigBee-LightLink-Demo/Light_ExtendedColorLight/Build/DriverBulb_DR1175.o (symbol from plugin) (bRGB_LED_Enable)
c:/NXP/bstudio_nxp/sdk/JN-SW-4168/Platform/DK4/Library\libBoardLib_JN516x.a(PCA9634.o)
                              LightingBoard.o (symbol from plugin) (bPCA9634_SetGroupLevel)
c:/NXP/bstudio_nxp/sdk/JN-SW-4168/Platform/DK4/Library\libBoardLib_JN516x.a(SMBus.o)
                              PCA9634.o (symbol from plugin) (bSMBusWrite)
c:/NXP/bstudio_nxp/sdk/JN-SW-4168/Components/Library\libZPSMAC_Mini_JN516x.a(zps_miniMac.o)
                              zps_apl_mac_isr.o (symbol from plugin) (ZPS_vMiniMacShimInit)
c:/NXP/bstudio_nxp/sdk/JN-SW-4168/Components/Library\libZPSTSV_JN516x.a(zps_tsv.o)
                              zps_apl_zdo_nwkmanager.o (symbol from plugin) (ZPS_vTsvInit)
c:/NXP/bstudio_nxp/sdk/JN-SW-4168/Components/Library\libAES_SW_JN516x.a(aes_sw_hmac_mmo.o)
                              zps_apl_sec.o (symbol from plugin) (AESSW_vHMAC_MMO)
c:/NXP/bstudio_nxp/sdk/JN-SW-4168/Components/Library\libZPSAPL_JN516x.a(zps_apl_inl.o)
                              zps_nwk_join.o (symbol from plugin) (ZPS_pvAplZdoGetAplHandle)
c:/NXP/bstudio_nxp/sdk/JN-SW-4168/Components/Library\libZPSAPL_JN516x.a(zps_apl_zdo_bind_manager.o)
                              zps_apl_inl.o (symbol from plugin) (zps_eAplZdoBind)
c:/NXP/bstudio_nxp/sdk/JN-SW-4168/Components/Library\libZPSAPL_JN516x.a(zps_apl_zdp_active_ep_req.o)
                              zps_apl_inl.o (symbol from plugin) (zps_eAplZdpActiveEpRequest)
c:/NXP/bstudio_nxp/sdk/JN-SW-4168/Components/Library\libZPSAPL_JN516x.a(zps_apl_zdp_active_ep_store_req.o)
                              zps_apl_inl.o (symbol from plugin) (zps_eAplZdpActiveEpStoreRequest)
c:/NXP/bstudio_nxp/sdk/JN-SW-4168/Components/Library\libZPSAPL_JN516x.a(zps_apl_zdp_backup_source_bind_req.o)
                              zps_apl_inl.o (symbol from plugin) (zps_eAplZdpBackupSourceBindRequest)
c:/NXP/bstudio_nxp/sdk/JN-SW-4168/Components/Library\libZPSAPL_JN516x.a(zps_apl_zdp_bind_register_req.o)
                              zps_apl_inl.o (symbol from plugin) (zps_eAplZdpBindRegisterRequest)
c:/NXP/bstudio_nxp/sdk/JN-SW-4168/Components/Library\libZPSAPL_JN516x.a(zps_apl_zdp_bind_unbind_req.o)
                              zps_apl_inl.o (symbol from plugin) (zps_eAplZdpBindUnbindRequest)
c:/NXP/bstudio_nxp/sdk/JN-SW-4168/Components/Library\libZPSAPL_JN516x.a(zps_apl_zdp_bkup_bind_table_req.o)
                              zps_apl_inl.o (symbol from plugin) (zps_eAplZdpBackupBindTableRequest)
c:/NXP/bstudio_nxp/sdk/JN-SW-4168/Components/Library\libZPSAPL_JN516x.a(zps_apl_zdp_complex_desc_req.o)
                              zps_apl_inl.o (symbol from plugin) (zps_eAplZdpComplexDescRequest)
c:/NXP/bstudio_nxp/sdk/JN-SW-4168/Components/Library\libZPSAPL_JN516x.a(zps_apl_zdp_discovery_cache_req.o)
                              zps_apl_inl.o (symbol from plugin) (zps_eAplZdpDiscoveryCacheRequest)
c:/NXP/bstudio_nxp/sdk/JN-SW-4168/Components/Library\libZPSAPL_JN516x.a(zps_apl_zdp_discovery_store_req.o)
                              zps_apl_inl.o (symbol from plugin) (zps_eAplZdpDiscoveryStoreRequest)
c:/NXP/bstudio_nxp/sdk/JN-SW-4168/Components/Library\libZPSAPL_JN516x.a(zps_apl_zdp_end_device_bind_req.o)
                              zps_apl_inl.o (symbol from plugin) (zps_eAplZdpEndDeviceBindRequest)
c:/NXP/bstudio_nxp/sdk/JN-SW-4168/Components/Library\libZPSAPL_JN516x.a(zps_apl_zdp_extended_active_ep_req.o)
                              zps_apl_inl.o (symbol from plugin) (zps_eAplZdpExtendedActiveEpRequest)
c:/NXP/bstudio_nxp/sdk/JN-SW-4168/Components/Library\libZPSAPL_JN516x.a(zps_apl_zdp_extended_simple_desc_req.o)
                              zps_apl_inl.o (symbol from plugin) (zps_eAplZdpExtendedSimpleDescRequest)
c:/NXP/bstudio_nxp/sdk/JN-SW-4168/Components/Library\libZPSAPL_JN516x.a(zps_apl_zdp_find_node_cache_req.o)
                              zps_apl_inl.o (symbol from plugin) (zps_eAplZdpFindNodeCacheRequest)
c:/NXP/bstudio_nxp/sdk/JN-SW-4168/Components/Library\libZPSAPL_JN516x.a(zps_apl_zdp_mgmt_bind_req.o)
                              zps_apl_inl.o (symbol from plugin) (zps_eAplZdpMgmtBindRequest)
c:/NXP/bstudio_nxp/sdk/JN-SW-4168/Components/Library\libZPSAPL_JN516x.a(zps_apl_zdp_mgmt_cache_req.o)
                              zps_apl_inl.o (symbol from plugin) (zps_eAplZdpMgmtCacheRequest)
c:/NXP/bstudio_nxp/sdk/JN-SW-4168/Components/Library\libZPSAPL_JN516x.a(zps_apl_zdp_mgmt_direct_join_req.o)
                              zps_apl_inl.o (symbol from plugin) (zps_eAplZdpMgmtDirectJoinRequest)
c:/NXP/bstudio_nxp/sdk/JN-SW-4168/Components/Library\libZPSAPL_JN516x.a(zps_apl_zdp_mgmt_leave_req.o)
                              zps_apl_inl.o (symbol from plugin) (zps_eAplZdpMgmtLeaveRequest)
c:/NXP/bstudio_nxp/sdk/JN-SW-4168/Components/Library\libZPSAPL_JN516x.a(zps_apl_zdp_mgmt_lqi_req.o)
                              zps_apl_inl.o (symbol from plugin) (zps_eAplZdpMgmtLqiRequest)
c:/NXP/bstudio_nxp/sdk/JN-SW-4168/Components/Library\libZPSAPL_JN516x.a(zps_apl_zdp_mgmt_nwk_disc_req.o)
                              zps_apl_inl.o (symbol from plugin) (zps_eAplZdpMgmtNwkDiscRequest)
c:/NXP/bstudio_nxp/sdk/JN-SW-4168/Components/Library\libZPSAPL_JN516x.a(zps_apl_zdp_mgmt_nwk_update_req.o)
                              zps_apl_inl.o (symbol from plugin) (zps_eAplZdpMgmtNwkUpdateRequest)
c:/NXP/bstudio_nxp/sdk/JN-SW-4168/Components/Library\libZPSAPL_JN516x.a(zps_apl_zdp_mgmt_permit_joining_req.o)
                              zps_apl_inl.o (symbol from plugin) (zps_eAplZdpMgmtPermitJoiningRequest)
c:/NXP/bstudio_nxp/sdk/JN-SW-4168/Components/Library\libZPSAPL_JN516x.a(zps_apl_zdp_mgmt_rtg_req.o)
                              zps_apl_inl.o (symbol from plugin) (zps_eAplZdpMgmtRtgRequest)
c:/NXP/bstudio_nxp/sdk/JN-SW-4168/Components/Library\libZPSAPL_JN516x.a(zps_apl_zdp_node_desc_req.o)
                              zps_apl_inl.o (symbol from plugin) (zps_eAplZdpNodeDescRequest)
c:/NXP/bstudio_nxp/sdk/JN-SW-4168/Components/Library\libZPSAPL_JN516x.a(zps_apl_zdp_nwk_addr_req.o)
                              zps_apl_inl.o (symbol from plugin) (zps_eAplZdpNwkAddrRequest)
c:/NXP/bstudio_nxp/sdk/JN-SW-4168/Components/Library\libZPSAPL_JN516x.a(zps_apl_zdp_power_desc_req.o)
                              zps_apl_inl.o (symbol from plugin) (zps_eAplZdpPowerDescRequest)
c:/NXP/bstudio_nxp/sdk/JN-SW-4168/Components/Library\libZPSAPL_JN516x.a(zps_apl_zdp_power_desc_store_req.o)
                              zps_apl_inl.o (symbol from plugin) (zps_eAplZdpPowerDescStoreRequest)
c:/NXP/bstudio_nxp/sdk/JN-SW-4168/Components/Library\libZPSAPL_JN516x.a(zps_apl_zdp_recover_bind_table_req.o)
                              zps_apl_inl.o (symbol from plugin) (zps_eAplZdpRecoverBindTableRequest)
c:/NXP/bstudio_nxp/sdk/JN-SW-4168/Components/Library\libZPSAPL_JN516x.a(zps_apl_zdp_recover_source_bind_req.o)
                              zps_apl_inl.o (symbol from plugin) (zps_eAplZdpRecoverSourceBindRequest)
c:/NXP/bstudio_nxp/sdk/JN-SW-4168/Components/Library\libZPSAPL_JN516x.a(zps_apl_zdp_remove_bkup_bind_entry_req.o)
                              zps_apl_inl.o (symbol from plugin) (zps_eAplZdpRemoveBkupBindEntryRequest)
c:/NXP/bstudio_nxp/sdk/JN-SW-4168/Components/Library\libZPSAPL_JN516x.a(zps_apl_zdp_remove_node_cache_req.o)
                              zps_apl_inl.o (symbol from plugin) (zps_eAplZdpRemoveNodeCacheRequest)
c:/NXP/bstudio_nxp/sdk/JN-SW-4168/Components/Library\libZPSAPL_JN516x.a(zps_apl_zdp_replace_device_req.o)
                              zps_apl_inl.o (symbol from plugin) (zps_eAplZdpReplaceDeviceRequest)
c:/NXP/bstudio_nxp/sdk/JN-SW-4168/Components/Library\libZPSAPL_JN516x.a(zps_apl_zdp_simple_desc_req.o)
                              zps_apl_inl.o (symbol from plugin) (zps_eAplZdpSimpleDescRequest)
c:/NXP/bstudio_nxp/sdk/JN-SW-4168/Components/Library\libZPSAPL_JN516x.a(zps_apl_zdp_simple_desc_store_req.o)
                              zps_apl_inl.o (symbol from plugin) (zps_eAplZdpSimpleDescStoreRequest)
c:/NXP/bstudio_nxp/sdk/JN-SW-4168/Components/Library\libZPSAPL_JN516x.a(zps_apl_zdp_system_server_discovery_req.o)
                              zps_apl_inl.o (symbol from plugin) (zps_eAplZdpSystemServerDiscoveryRequest)
c:/NXP/bstudio_nxp/sdk/JN-SW-4168/Components/Library\libZPSAPL_JN516x.a(zps_apl_zdp_store_bkup_bind_entry_req.o)
                              zps_apl_inl.o (symbol from plugin) (zps_eAplZdpStoreBkupBindEntryRequest)
c:/NXP/bstudio_nxp/sdk/JN-SW-4168/Components/Library\libZPSAPL_JN516x.a(zps_apl_zdp_node_desc_store_req.o)
                              zps_apl_inl.o (symbol from plugin) (zps_eAplZdpNodeDescStoreRequest)
c:/NXP/bstudio_nxp/sdk/JN-SW-4168/Components/Library\libZPSAPL_JN516x.a(zps_apl_zdp_user_desc_req.o)
                              zps_apl_inl.o (symbol from plugin) (zps_eAplZdpUserDescRequest)
c:/NXP/bstudio_nxp/sdk/JN-SW-4168/Components/Library\libZPSAPL_JN516x.a(zps_apl_zdp_user_desc_set.o)
                              zps_apl_inl.o (symbol from plugin) (zps_eAplZdpUserDescSetRequest)
c:/NXP/bstudio_nxp/sdk/JN-SW-4168/Components/Library\libHardwareApi_JN5169.a(AHI_Si.o)
                              PCA9634.o (symbol from plugin) (vAHI_SiMasterConfigure)
c:/nxp/bstudio_nxp/sdk/tools/ba-elf-ba2-r36379/bin/../lib/gcc/ba-elf/4.7.4/../../../../ba-elf/lib/mcpu_jn51xx_sizeopt\libc.a(lib_a-memcmp.o)
                              C:\Users\Gillis\AppData\Local\Temp\ccnqav2l.ltrans1.ltrans.o (memcmp)
c:/nxp/bstudio_nxp/sdk/tools/ba-elf-ba2-r36379/bin/../lib/gcc/ba-elf/4.7.4/../../../../ba-elf/lib/mcpu_jn51xx_sizeopt\libc.a(lib_a-memcpy.o)
                              C:\Users\Gillis\AppData\Local\Temp\ccnqav2l.ltrans0.ltrans.o (memcpy)
c:/nxp/bstudio_nxp/sdk/tools/ba-elf-ba2-r36379/bin/../lib/gcc/ba-elf/4.7.4/../../../../ba-elf/lib/mcpu_jn51xx_sizeopt\libc.a(lib_a-memset.o)
                              C:\Users\Gillis\AppData\Local\Temp\ccnqav2l.ltrans0.ltrans.o (memset)
c:/nxp/bstudio_nxp/sdk/tools/ba-elf-ba2-r36379/bin/../lib/gcc/ba-elf/4.7.4/../../../../ba-elf/lib/mcpu_jn51xx_sizeopt\libc.a(lib_a-strlen.o)
                              C:\Users\Gillis\AppData\Local\Temp\ccnqav2l.ltrans21.ltrans.o (strlen)
c:/nxp/bstudio_nxp/sdk/tools/ba-elf-ba2-r36379/bin/../lib/gcc/ba-elf/4.7.4/../../../../ba-elf/lib/mcpu_jn51xx_sizeopt\libc.a(lib_a-strncpy.o)
                              C:\Users\Gillis\AppData\Local\Temp\ccnqav2l.ltrans2.ltrans.o (strncpy)
c:/nxp/bstudio_nxp/sdk/tools/ba-elf-ba2-r36379/bin/../lib/gcc/ba-elf/4.7.4/mcpu_jn51xx_sizeopt\libgcc.a(__udivsi3.o)
                              C:\Users\Gillis\AppData\Local\Temp\ccnqav2l.ltrans2.ltrans.o (__udivsi3)
c:/nxp/bstudio_nxp/sdk/tools/ba-elf-ba2-r36379/bin/../lib/gcc/ba-elf/4.7.4/mcpu_jn51xx_sizeopt\libgcc.a(__divsi3.o)
                              C:\Users\Gillis\AppData\Local\Temp\ccnqav2l.ltrans5.ltrans.o (__divsi3)
c:/nxp/bstudio_nxp/sdk/tools/ba-elf-ba2-r36379/bin/../lib/gcc/ba-elf/4.7.4/mcpu_jn51xx_sizeopt\libgcc.a(__umodsi3.o)
                              C:\Users\Gillis\AppData\Local\Temp\ccnqav2l.ltrans2.ltrans.o (__umodsi3)
c:/nxp/bstudio_nxp/sdk/tools/ba-elf-ba2-r36379/bin/../lib/gcc/ba-elf/4.7.4/mcpu_jn51xx_sizeopt\libgcc.a(__modsi3.o)
                              C:\Users\Gillis\AppData\Local\Temp\ccnqav2l.ltrans6.ltrans.o (__modsi3)
c:/nxp/bstudio_nxp/sdk/tools/ba-elf-ba2-r36379/bin/../lib/gcc/ba-elf/4.7.4/mcpu_jn51xx_sizeopt\libgcc.a(_fixunsdfsi.o)
                              C:\Users\Gillis\AppData\Local\Temp\ccnqav2l.ltrans1.ltrans.o (__fixunsdfsi)
c:/nxp/bstudio_nxp/sdk/tools/ba-elf-ba2-r36379/bin/../lib/gcc/ba-elf/4.7.4/mcpu_jn51xx_sizeopt\libgcc.a(_divdi3.o)
                              C:\Users\Gillis\AppData\Local\Temp\ccnqav2l.ltrans4.ltrans.o (__divdi3)
c:/nxp/bstudio_nxp/sdk/tools/ba-elf-ba2-r36379/bin/../lib/gcc/ba-elf/4.7.4/mcpu_jn51xx_sizeopt\libgcc.a(_udivdi3.o)
                              C:\Users\Gillis\AppData\Local\Temp\ccnqav2l.ltrans4.ltrans.o (__udivdi3)
c:/nxp/bstudio_nxp/sdk/tools/ba-elf-ba2-r36379/bin/../lib/gcc/ba-elf/4.7.4/mcpu_jn51xx_sizeopt\libgcc.a(addsf3.o)
                              C:\Users\Gillis\AppData\Local\Temp\ccnqav2l.ltrans1.ltrans.o (__addsf3)
c:/nxp/bstudio_nxp/sdk/tools/ba-elf-ba2-r36379/bin/../lib/gcc/ba-elf/4.7.4/mcpu_jn51xx_sizeopt\libgcc.a(divsf3.o)
                              C:\Users\Gillis\AppData\Local\Temp\ccnqav2l.ltrans1.ltrans.o (__divsf3)
c:/nxp/bstudio_nxp/sdk/tools/ba-elf-ba2-r36379/bin/../lib/gcc/ba-elf/4.7.4/mcpu_jn51xx_sizeopt\libgcc.a(eqsf2.o)
                              C:\Users\Gillis\AppData\Local\Temp\ccnqav2l.ltrans1.ltrans.o (__eqsf2)
c:/nxp/bstudio_nxp/sdk/tools/ba-elf-ba2-r36379/bin/../lib/gcc/ba-elf/4.7.4/mcpu_jn51xx_sizeopt\libgcc.a(gesf2.o)
                              C:\Users\Gillis\AppData\Local\Temp\ccnqav2l.ltrans1.ltrans.o (__gesf2)
c:/nxp/bstudio_nxp/sdk/tools/ba-elf-ba2-r36379/bin/../lib/gcc/ba-elf/4.7.4/mcpu_jn51xx_sizeopt\libgcc.a(lesf2.o)
                              C:\Users\Gillis\AppData\Local\Temp\ccnqav2l.ltrans1.ltrans.o (__lesf2)
c:/nxp/bstudio_nxp/sdk/tools/ba-elf-ba2-r36379/bin/../lib/gcc/ba-elf/4.7.4/mcpu_jn51xx_sizeopt\libgcc.a(mulsf3.o)
                              C:\Users\Gillis\AppData\Local\Temp\ccnqav2l.ltrans1.ltrans.o (__mulsf3)
c:/nxp/bstudio_nxp/sdk/tools/ba-elf-ba2-r36379/bin/../lib/gcc/ba-elf/4.7.4/mcpu_jn51xx_sizeopt\libgcc.a(subsf3.o)
                              C:\Users\Gillis\AppData\Local\Temp\ccnqav2l.ltrans1.ltrans.o (__subsf3)
c:/nxp/bstudio_nxp/sdk/tools/ba-elf-ba2-r36379/bin/../lib/gcc/ba-elf/4.7.4/mcpu_jn51xx_sizeopt\libgcc.a(fixsfsi.o)
                              C:\Users\Gillis\AppData\Local\Temp\ccnqav2l.ltrans4.ltrans.o (__fixsfsi)
c:/nxp/bstudio_nxp/sdk/tools/ba-elf-ba2-r36379/bin/../lib/gcc/ba-elf/4.7.4/mcpu_jn51xx_sizeopt\libgcc.a(floatunsisf.o)
                              C:\Users\Gillis\AppData\Local\Temp\ccnqav2l.ltrans1.ltrans.o (__floatunsisf)
c:/nxp/bstudio_nxp/sdk/tools/ba-elf-ba2-r36379/bin/../lib/gcc/ba-elf/4.7.4/mcpu_jn51xx_sizeopt\libgcc.a(adddf3.o)
                              C:\Users\Gillis\AppData\Local\Temp\ccnqav2l.ltrans4.ltrans.o (__adddf3)
c:/nxp/bstudio_nxp/sdk/tools/ba-elf-ba2-r36379/bin/../lib/gcc/ba-elf/4.7.4/mcpu_jn51xx_sizeopt\libgcc.a(divdf3.o)
                              C:\Users\Gillis\AppData\Local\Temp\ccnqav2l.ltrans1.ltrans.o (__divdf3)
c:/nxp/bstudio_nxp/sdk/tools/ba-elf-ba2-r36379/bin/../lib/gcc/ba-elf/4.7.4/mcpu_jn51xx_sizeopt\libgcc.a(gedf2.o)
                              c:/nxp/bstudio_nxp/sdk/tools/ba-elf-ba2-r36379/bin/../lib/gcc/ba-elf/4.7.4/mcpu_jn51xx_sizeopt\libgcc.a(_fixunsdfsi.o) (__gedf2)
c:/nxp/bstudio_nxp/sdk/tools/ba-elf-ba2-r36379/bin/../lib/gcc/ba-elf/4.7.4/mcpu_jn51xx_sizeopt\libgcc.a(muldf3.o)
                              C:\Users\Gillis\AppData\Local\Temp\ccnqav2l.ltrans1.ltrans.o (__muldf3)
c:/nxp/bstudio_nxp/sdk/tools/ba-elf-ba2-r36379/bin/../lib/gcc/ba-elf/4.7.4/mcpu_jn51xx_sizeopt\libgcc.a(subdf3.o)
                              C:\Users\Gillis\AppData\Local\Temp\ccnqav2l.ltrans4.ltrans.o (__subdf3)
c:/nxp/bstudio_nxp/sdk/tools/ba-elf-ba2-r36379/bin/../lib/gcc/ba-elf/4.7.4/mcpu_jn51xx_sizeopt\libgcc.a(fixdfsi.o)
                              c:/nxp/bstudio_nxp/sdk/tools/ba-elf-ba2-r36379/bin/../lib/gcc/ba-elf/4.7.4/mcpu_jn51xx_sizeopt\libgcc.a(_fixunsdfsi.o) (__fixdfsi)
c:/nxp/bstudio_nxp/sdk/tools/ba-elf-ba2-r36379/bin/../lib/gcc/ba-elf/4.7.4/mcpu_jn51xx_sizeopt\libgcc.a(extendsfdf2.o)
                              C:\Users\Gillis\AppData\Local\Temp\ccnqav2l.ltrans1.ltrans.o (__extendsfdf2)
c:/nxp/bstudio_nxp/sdk/tools/ba-elf-ba2-r36379/bin/../lib/gcc/ba-elf/4.7.4/mcpu_jn51xx_sizeopt\libgcc.a(truncdfsf2.o)
                              C:\Users\Gillis\AppData\Local\Temp\ccnqav2l.ltrans4.ltrans.o (__truncdfsf2)
c:/NXP/bstudio_nxp/sdk/JN-SW-4168/Components/Library\libOS_JN516x.a(os_version_lc.o)
                              C:\Users\Gillis\AppData\Local\Temp\ccnqav2l.ltrans31.ltrans.o (OS_Version_1v2)
c:/NXP/bstudio_nxp/sdk/JN-SW-4168/Components/Library\libZPSAPL_JN516x.a(zps_apl_version_lc.o)
                              C:\Users\Gillis\AppData\Local\Temp\ccnqav2l.ltrans2.ltrans.o (ZPS_APL_Version_2v0)
c:/NXP/bstudio_nxp/sdk/JN-SW-4168/Components/Library\libZPSNWK_JN516x.a(zps_nwk_version_lc.o)
                              C:\Users\Gillis\AppData\Local\Temp\ccnqav2l.ltrans2.ltrans.o (ZPS_NWK_Version_2v0)
c:/nxp/bstudio_nxp/sdk/tools/ba-elf-ba2-r36379/bin/../lib/gcc/ba-elf/4.7.4/../../../../ba-elf/lib/mcpu_jn51xx_sizeopt\libm.a(lib_a-s_floor.o)
                              C:\Users\Gillis\AppData\Local\Temp\ccnqav2l.ltrans4.ltrans.o (floor)

Allocating common symbols
Common symbol       size              file

in                  0x10              c:/NXP/bstudio_nxp/workspace/JN-AN-1171-ZigBee-LightLink-Demo/Light_ExtendedColorLight/Build/ecb_decrypt.o (symbol from plugin)
bMiniMacConfig_DiscardUnsuccessfulAssocResponses
                    0x1               Mini_Association.o (symbol from plugin)
sStartParams        0x40              c:/NXP/bstudio_nxp/workspace/JN-AN-1171-ZigBee-LightLink-Demo/Light_ExtendedColorLight/Build/app_light_commission_task.o (symbol from plugin)
out                 0x10              c:/NXP/bstudio_nxp/workspace/JN-AN-1171-ZigBee-LightLink-Demo/Light_ExtendedColorLight/Build/ecb_decrypt.o (symbol from plugin)
prMiniMacTofRxHandler
                    0x4               Mini_Running.o (symbol from plugin)
prTickTimeAppCallback
                    0x4               AHI_TickTimer.o (symbol from plugin)
sZllPDDesc          0x18              c:/NXP/bstudio_nxp/workspace/JN-AN-1171-ZigBee-LightLink-Demo/Light_ExtendedColorLight/Build/app_light_commission_task.o (symbol from plugin)
bRadioDoze          0x1               Mini_Running.o (symbol from plugin)
au8LevelControlServerAttributeControlBits
                    0x3               c:/NXP/bstudio_nxp/workspace/JN-AN-1171-ZigBee-LightLink-Demo/Light_ExtendedColorLight/Build/LevelControl.o (symbol from plugin)
au8ScenesServerAttributeControlBits
                    0x6               c:/NXP/bstudio_nxp/workspace/JN-AN-1171-ZigBee-LightLink-Demo/Light_ExtendedColorLight/Build/Scenes.o (symbol from plugin)
bMAC_ImmortalIndirect
                    0x1               Mini_Mcps.o (symbol from plugin)
au8OnOffServerAttributeControlBits
                    0x4               c:/NXP/bstudio_nxp/workspace/JN-AN-1171-ZigBee-LightLink-Demo/Light_ExtendedColorLight/Build/OnOff.o (symbol from plugin)
gu16PwmLastValue    0x2               LightingBoard.o (symbol from plugin)
au8ColourControlServerAttributeControlBits
                    0x1b              c:/NXP/bstudio_nxp/workspace/JN-AN-1171-ZigBee-LightLink-Demo/Light_ExtendedColorLight/Build/ColourControl.o (symbol from plugin)
au8GroupsServerAttributeControlBits
                    0x1               c:/NXP/bstudio_nxp/workspace/JN-AN-1171-ZigBee-LightLink-Demo/Light_ExtendedColorLight/Build/Groups.o (symbol from plugin)
prMiniMac_u32BbcIntCallback
                    0x4               Mini_Main.o (symbol from plugin)
au8IdentifyServerAttributeControlBits
                    0x1               c:/NXP/bstudio_nxp/workspace/JN-AN-1171-ZigBee-LightLink-Demo/Light_ExtendedColorLight/Build/Identify.o (symbol from plugin)
g_bLegacyHwBugEmulation
                    0x1               AES_CCM_Star.o (symbol from plugin)
Key                 0x10              c:/NXP/bstudio_nxp/workspace/JN-AN-1171-ZigBee-LightLink-Demo/Light_ExtendedColorLight/Build/ecb_decrypt.o (symbol from plugin)
au8BasicClusterAttributeControlBits
                    0x9               c:/NXP/bstudio_nxp/workspace/JN-AN-1171-ZigBee-LightLink-Demo/Light_ExtendedColorLight/Build/Basic.o (symbol from plugin)
uAttributeVal       0x10              c:/NXP/bstudio_nxp/workspace/JN-AN-1171-ZigBee-LightLink-Demo/Light_ExtendedColorLight/Build/zcl_readAttributesResponseHandle.o (symbol from plugin)

Discarded input sections

 .text          0x0000000000000000        0x0 c:/NXP/bstudio_nxp/workspace/JN-AN-1171-ZigBee-LightLink-Demo/Light_ExtendedColorLight/Build/os_gen.o (symbol from plugin)
 .data          0x0000000000000000        0x0 C:\Users\Gillis\AppData\Local\Temp\ccnqav2l.ltrans2.ltrans.o
 .data          0x0000000000000000        0x0 C:\Users\Gillis\AppData\Local\Temp\ccnqav2l.ltrans6.ltrans.o
 .data          0x0000000000000000        0x0 C:\Users\Gillis\AppData\Local\Temp\ccnqav2l.ltrans7.ltrans.o
 .rodata        0x0000000000000000        0x4 C:\Users\Gillis\AppData\Local\Temp\ccnqav2l.ltrans7.ltrans.o
 .data          0x0000000000000000        0x0 C:\Users\Gillis\AppData\Local\Temp\ccnqav2l.ltrans8.ltrans.o
 .data          0x0000000000000000        0x0 C:\Users\Gillis\AppData\Local\Temp\ccnqav2l.ltrans9.ltrans.o
 .data          0x0000000000000000        0x0 C:\Users\Gillis\AppData\Local\Temp\ccnqav2l.ltrans10.ltrans.o
 .data          0x0000000000000000        0x0 C:\Users\Gillis\AppData\Local\Temp\ccnqav2l.ltrans12.ltrans.o
 .data          0x0000000000000000        0x0 C:\Users\Gillis\AppData\Local\Temp\ccnqav2l.ltrans15.ltrans.o
 .data          0x0000000000000000        0x0 C:\Users\Gillis\AppData\Local\Temp\ccnqav2l.ltrans16.ltrans.o
 .data          0x0000000000000000        0x0 C:\Users\Gillis\AppData\Local\Temp\ccnqav2l.ltrans17.ltrans.o
 .bss           0x0000000000000000        0x0 C:\Users\Gillis\AppData\Local\Temp\ccnqav2l.ltrans17.ltrans.o
 .data          0x0000000000000000        0x0 C:\Users\Gillis\AppData\Local\Temp\ccnqav2l.ltrans19.ltrans.o
 .bss           0x0000000000000000        0x0 C:\Users\Gillis\AppData\Local\Temp\ccnqav2l.ltrans19.ltrans.o
 .data          0x0000000000000000        0x0 C:\Users\Gillis\AppData\Local\Temp\ccnqav2l.ltrans20.ltrans.o
 .bss           0x0000000000000000        0x0 C:\Users\Gillis\AppData\Local\Temp\ccnqav2l.ltrans20.ltrans.o
 .data          0x0000000000000000        0x0 C:\Users\Gillis\AppData\Local\Temp\ccnqav2l.ltrans21.ltrans.o
 .bss           0x0000000000000000        0x0 C:\Users\Gillis\AppData\Local\Temp\ccnqav2l.ltrans21.ltrans.o
 .data          0x0000000000000000        0x0 C:\Users\Gillis\AppData\Local\Temp\ccnqav2l.ltrans22.ltrans.o
 .rodata        0x0000000000000000        0x2 C:\Users\Gillis\AppData\Local\Temp\ccnqav2l.ltrans22.ltrans.o
 .data          0x0000000000000000        0x0 C:\Users\Gillis\AppData\Local\Temp\ccnqav2l.ltrans23.ltrans.o
 .bss           0x0000000000000000        0x0 C:\Users\Gillis\AppData\Local\Temp\ccnqav2l.ltrans23.ltrans.o
 .data          0x0000000000000000        0x0 C:\Users\Gillis\AppData\Local\Temp\ccnqav2l.ltrans27.ltrans.o
 .data          0x0000000000000000        0x0 C:\Users\Gillis\AppData\Local\Temp\ccnqav2l.ltrans28.ltrans.o
 .data          0x0000000000000000        0x0 C:\Users\Gillis\AppData\Local\Temp\ccnqav2l.ltrans29.ltrans.o
 .data          0x0000000000000000        0x0 C:\Users\Gillis\AppData\Local\Temp\ccnqav2l.ltrans30.ltrans.o
 .data          0x0000000000000000        0x0 c:/nxp/bstudio_nxp/sdk/tools/ba-elf-ba2-r36379/bin/../lib/gcc/ba-elf/4.7.4/../../../../ba-elf/lib/mcpu_jn51xx_sizeopt\libc.a(lib_a-memcmp.o)
 .bss           0x0000000000000000        0x0 c:/nxp/bstudio_nxp/sdk/tools/ba-elf-ba2-r36379/bin/../lib/gcc/ba-elf/4.7.4/../../../../ba-elf/lib/mcpu_jn51xx_sizeopt\libc.a(lib_a-memcmp.o)
 .data          0x0000000000000000        0x0 c:/nxp/bstudio_nxp/sdk/tools/ba-elf-ba2-r36379/bin/../lib/gcc/ba-elf/4.7.4/../../../../ba-elf/lib/mcpu_jn51xx_sizeopt\libc.a(lib_a-memcpy.o)
 .bss           0x0000000000000000        0x0 c:/nxp/bstudio_nxp/sdk/tools/ba-elf-ba2-r36379/bin/../lib/gcc/ba-elf/4.7.4/../../../../ba-elf/lib/mcpu_jn51xx_sizeopt\libc.a(lib_a-memcpy.o)
 .data          0x0000000000000000        0x0 c:/nxp/bstudio_nxp/sdk/tools/ba-elf-ba2-r36379/bin/../lib/gcc/ba-elf/4.7.4/../../../../ba-elf/lib/mcpu_jn51xx_sizeopt\libc.a(lib_a-memset.o)
 .bss           0x0000000000000000        0x0 c:/nxp/bstudio_nxp/sdk/tools/ba-elf-ba2-r36379/bin/../lib/gcc/ba-elf/4.7.4/../../../../ba-elf/lib/mcpu_jn51xx_sizeopt\libc.a(lib_a-memset.o)
 .data          0x0000000000000000        0x0 c:/nxp/bstudio_nxp/sdk/tools/ba-elf-ba2-r36379/bin/../lib/gcc/ba-elf/4.7.4/../../../../ba-elf/lib/mcpu_jn51xx_sizeopt\libc.a(lib_a-strlen.o)
 .bss           0x0000000000000000        0x0 c:/nxp/bstudio_nxp/sdk/tools/ba-elf-ba2-r36379/bin/../lib/gcc/ba-elf/4.7.4/../../../../ba-elf/lib/mcpu_jn51xx_sizeopt\libc.a(lib_a-strlen.o)
 .data          0x0000000000000000        0x0 c:/nxp/bstudio_nxp/sdk/tools/ba-elf-ba2-r36379/bin/../lib/gcc/ba-elf/4.7.4/../../../../ba-elf/lib/mcpu_jn51xx_sizeopt\libc.a(lib_a-strncpy.o)
 .bss           0x0000000000000000        0x0 c:/nxp/bstudio_nxp/sdk/tools/ba-elf-ba2-r36379/bin/../lib/gcc/ba-elf/4.7.4/../../../../ba-elf/lib/mcpu_jn51xx_sizeopt\libc.a(lib_a-strncpy.o)
 .data          0x0000000000000000        0x0 c:/nxp/bstudio_nxp/sdk/tools/ba-elf-ba2-r36379/bin/../lib/gcc/ba-elf/4.7.4/mcpu_jn51xx_sizeopt\libgcc.a(__udivsi3.o)
 .bss           0x0000000000000000        0x0 c:/nxp/bstudio_nxp/sdk/tools/ba-elf-ba2-r36379/bin/../lib/gcc/ba-elf/4.7.4/mcpu_jn51xx_sizeopt\libgcc.a(__udivsi3.o)
 .data          0x0000000000000000        0x0 c:/nxp/bstudio_nxp/sdk/tools/ba-elf-ba2-r36379/bin/../lib/gcc/ba-elf/4.7.4/mcpu_jn51xx_sizeopt\libgcc.a(__divsi3.o)
 .bss           0x0000000000000000        0x0 c:/nxp/bstudio_nxp/sdk/tools/ba-elf-ba2-r36379/bin/../lib/gcc/ba-elf/4.7.4/mcpu_jn51xx_sizeopt\libgcc.a(__divsi3.o)
 .data          0x0000000000000000        0x0 c:/nxp/bstudio_nxp/sdk/tools/ba-elf-ba2-r36379/bin/../lib/gcc/ba-elf/4.7.4/mcpu_jn51xx_sizeopt\libgcc.a(__umodsi3.o)
 .bss           0x0000000000000000        0x0 c:/nxp/bstudio_nxp/sdk/tools/ba-elf-ba2-r36379/bin/../lib/gcc/ba-elf/4.7.4/mcpu_jn51xx_sizeopt\libgcc.a(__umodsi3.o)
 .data          0x0000000000000000        0x0 c:/nxp/bstudio_nxp/sdk/tools/ba-elf-ba2-r36379/bin/../lib/gcc/ba-elf/4.7.4/mcpu_jn51xx_sizeopt\libgcc.a(__modsi3.o)
 .bss           0x0000000000000000        0x0 c:/nxp/bstudio_nxp/sdk/tools/ba-elf-ba2-r36379/bin/../lib/gcc/ba-elf/4.7.4/mcpu_jn51xx_sizeopt\libgcc.a(__modsi3.o)
 .data          0x0000000000000000        0x0 c:/nxp/bstudio_nxp/sdk/tools/ba-elf-ba2-r36379/bin/../lib/gcc/ba-elf/4.7.4/mcpu_jn51xx_sizeopt\libgcc.a(_fixunsdfsi.o)
 .bss           0x0000000000000000        0x0 c:/nxp/bstudio_nxp/sdk/tools/ba-elf-ba2-r36379/bin/../lib/gcc/ba-elf/4.7.4/mcpu_jn51xx_sizeopt\libgcc.a(_fixunsdfsi.o)
 .data          0x0000000000000000        0x0 c:/nxp/bstudio_nxp/sdk/tools/ba-elf-ba2-r36379/bin/../lib/gcc/ba-elf/4.7.4/mcpu_jn51xx_sizeopt\libgcc.a(_divdi3.o)
 .bss           0x0000000000000000        0x0 c:/nxp/bstudio_nxp/sdk/tools/ba-elf-ba2-r36379/bin/../lib/gcc/ba-elf/4.7.4/mcpu_jn51xx_sizeopt\libgcc.a(_divdi3.o)
 .eh_frame      0x0000000000000000       0x38 c:/nxp/bstudio_nxp/sdk/tools/ba-elf-ba2-r36379/bin/../lib/gcc/ba-elf/4.7.4/mcpu_jn51xx_sizeopt\libgcc.a(_divdi3.o)
 .data          0x0000000000000000        0x0 c:/nxp/bstudio_nxp/sdk/tools/ba-elf-ba2-r36379/bin/../lib/gcc/ba-elf/4.7.4/mcpu_jn51xx_sizeopt\libgcc.a(_udivdi3.o)
 .bss           0x0000000000000000        0x0 c:/nxp/bstudio_nxp/sdk/tools/ba-elf-ba2-r36379/bin/../lib/gcc/ba-elf/4.7.4/mcpu_jn51xx_sizeopt\libgcc.a(_udivdi3.o)
 .eh_frame      0x0000000000000000       0x38 c:/nxp/bstudio_nxp/sdk/tools/ba-elf-ba2-r36379/bin/../lib/gcc/ba-elf/4.7.4/mcpu_jn51xx_sizeopt\libgcc.a(_udivdi3.o)
 .data          0x0000000000000000        0x0 c:/nxp/bstudio_nxp/sdk/tools/ba-elf-ba2-r36379/bin/../lib/gcc/ba-elf/4.7.4/mcpu_jn51xx_sizeopt\libgcc.a(addsf3.o)
 .bss           0x0000000000000000        0x0 c:/nxp/bstudio_nxp/sdk/tools/ba-elf-ba2-r36379/bin/../lib/gcc/ba-elf/4.7.4/mcpu_jn51xx_sizeopt\libgcc.a(addsf3.o)
 .data          0x0000000000000000        0x0 c:/nxp/bstudio_nxp/sdk/tools/ba-elf-ba2-r36379/bin/../lib/gcc/ba-elf/4.7.4/mcpu_jn51xx_sizeopt\libgcc.a(divsf3.o)
 .bss           0x0000000000000000        0x0 c:/nxp/bstudio_nxp/sdk/tools/ba-elf-ba2-r36379/bin/../lib/gcc/ba-elf/4.7.4/mcpu_jn51xx_sizeopt\libgcc.a(divsf3.o)
 .data          0x0000000000000000        0x0 c:/nxp/bstudio_nxp/sdk/tools/ba-elf-ba2-r36379/bin/../lib/gcc/ba-elf/4.7.4/mcpu_jn51xx_sizeopt\libgcc.a(eqsf2.o)
 .bss           0x0000000000000000        0x0 c:/nxp/bstudio_nxp/sdk/tools/ba-elf-ba2-r36379/bin/../lib/gcc/ba-elf/4.7.4/mcpu_jn51xx_sizeopt\libgcc.a(eqsf2.o)
 .data          0x0000000000000000        0x0 c:/nxp/bstudio_nxp/sdk/tools/ba-elf-ba2-r36379/bin/../lib/gcc/ba-elf/4.7.4/mcpu_jn51xx_sizeopt\libgcc.a(gesf2.o)
 .bss           0x0000000000000000        0x0 c:/nxp/bstudio_nxp/sdk/tools/ba-elf-ba2-r36379/bin/../lib/gcc/ba-elf/4.7.4/mcpu_jn51xx_sizeopt\libgcc.a(gesf2.o)
 .data          0x0000000000000000        0x0 c:/nxp/bstudio_nxp/sdk/tools/ba-elf-ba2-r36379/bin/../lib/gcc/ba-elf/4.7.4/mcpu_jn51xx_sizeopt\libgcc.a(lesf2.o)
 .bss           0x0000000000000000        0x0 c:/nxp/bstudio_nxp/sdk/tools/ba-elf-ba2-r36379/bin/../lib/gcc/ba-elf/4.7.4/mcpu_jn51xx_sizeopt\libgcc.a(lesf2.o)
 .data          0x0000000000000000        0x0 c:/nxp/bstudio_nxp/sdk/tools/ba-elf-ba2-r36379/bin/../lib/gcc/ba-elf/4.7.4/mcpu_jn51xx_sizeopt\libgcc.a(mulsf3.o)
 .bss           0x0000000000000000        0x0 c:/nxp/bstudio_nxp/sdk/tools/ba-elf-ba2-r36379/bin/../lib/gcc/ba-elf/4.7.4/mcpu_jn51xx_sizeopt\libgcc.a(mulsf3.o)
 .data          0x0000000000000000        0x0 c:/nxp/bstudio_nxp/sdk/tools/ba-elf-ba2-r36379/bin/../lib/gcc/ba-elf/4.7.4/mcpu_jn51xx_sizeopt\libgcc.a(subsf3.o)
 .bss           0x0000000000000000        0x0 c:/nxp/bstudio_nxp/sdk/tools/ba-elf-ba2-r36379/bin/../lib/gcc/ba-elf/4.7.4/mcpu_jn51xx_sizeopt\libgcc.a(subsf3.o)
 .data          0x0000000000000000        0x0 c:/nxp/bstudio_nxp/sdk/tools/ba-elf-ba2-r36379/bin/../lib/gcc/ba-elf/4.7.4/mcpu_jn51xx_sizeopt\libgcc.a(fixsfsi.o)
 .bss           0x0000000000000000        0x0 c:/nxp/bstudio_nxp/sdk/tools/ba-elf-ba2-r36379/bin/../lib/gcc/ba-elf/4.7.4/mcpu_jn51xx_sizeopt\libgcc.a(fixsfsi.o)
 .data          0x0000000000000000        0x0 c:/nxp/bstudio_nxp/sdk/tools/ba-elf-ba2-r36379/bin/../lib/gcc/ba-elf/4.7.4/mcpu_jn51xx_sizeopt\libgcc.a(floatunsisf.o)
 .bss           0x0000000000000000        0x0 c:/nxp/bstudio_nxp/sdk/tools/ba-elf-ba2-r36379/bin/../lib/gcc/ba-elf/4.7.4/mcpu_jn51xx_sizeopt\libgcc.a(floatunsisf.o)
 .data          0x0000000000000000        0x0 c:/nxp/bstudio_nxp/sdk/tools/ba-elf-ba2-r36379/bin/../lib/gcc/ba-elf/4.7.4/mcpu_jn51xx_sizeopt\libgcc.a(adddf3.o)
 .bss           0x0000000000000000        0x0 c:/nxp/bstudio_nxp/sdk/tools/ba-elf-ba2-r36379/bin/../lib/gcc/ba-elf/4.7.4/mcpu_jn51xx_sizeopt\libgcc.a(adddf3.o)
 .data          0x0000000000000000        0x0 c:/nxp/bstudio_nxp/sdk/tools/ba-elf-ba2-r36379/bin/../lib/gcc/ba-elf/4.7.4/mcpu_jn51xx_sizeopt\libgcc.a(divdf3.o)
 .bss           0x0000000000000000        0x0 c:/nxp/bstudio_nxp/sdk/tools/ba-elf-ba2-r36379/bin/../lib/gcc/ba-elf/4.7.4/mcpu_jn51xx_sizeopt\libgcc.a(divdf3.o)
 .data          0x0000000000000000        0x0 c:/nxp/bstudio_nxp/sdk/tools/ba-elf-ba2-r36379/bin/../lib/gcc/ba-elf/4.7.4/mcpu_jn51xx_sizeopt\libgcc.a(gedf2.o)
 .bss           0x0000000000000000        0x0 c:/nxp/bstudio_nxp/sdk/tools/ba-elf-ba2-r36379/bin/../lib/gcc/ba-elf/4.7.4/mcpu_jn51xx_sizeopt\libgcc.a(gedf2.o)
 .data          0x0000000000000000        0x0 c:/nxp/bstudio_nxp/sdk/tools/ba-elf-ba2-r36379/bin/../lib/gcc/ba-elf/4.7.4/mcpu_jn51xx_sizeopt\libgcc.a(muldf3.o)
 .bss           0x0000000000000000        0x0 c:/nxp/bstudio_nxp/sdk/tools/ba-elf-ba2-r36379/bin/../lib/gcc/ba-elf/4.7.4/mcpu_jn51xx_sizeopt\libgcc.a(muldf3.o)
 .data          0x0000000000000000        0x0 c:/nxp/bstudio_nxp/sdk/tools/ba-elf-ba2-r36379/bin/../lib/gcc/ba-elf/4.7.4/mcpu_jn51xx_sizeopt\libgcc.a(subdf3.o)
 .bss           0x0000000000000000        0x0 c:/nxp/bstudio_nxp/sdk/tools/ba-elf-ba2-r36379/bin/../lib/gcc/ba-elf/4.7.4/mcpu_jn51xx_sizeopt\libgcc.a(subdf3.o)
 .data          0x0000000000000000        0x0 c:/nxp/bstudio_nxp/sdk/tools/ba-elf-ba2-r36379/bin/../lib/gcc/ba-elf/4.7.4/mcpu_jn51xx_sizeopt\libgcc.a(fixdfsi.o)
 .bss           0x0000000000000000        0x0 c:/nxp/bstudio_nxp/sdk/tools/ba-elf-ba2-r36379/bin/../lib/gcc/ba-elf/4.7.4/mcpu_jn51xx_sizeopt\libgcc.a(fixdfsi.o)
 .data          0x0000000000000000        0x0 c:/nxp/bstudio_nxp/sdk/tools/ba-elf-ba2-r36379/bin/../lib/gcc/ba-elf/4.7.4/mcpu_jn51xx_sizeopt\libgcc.a(extendsfdf2.o)
 .bss           0x0000000000000000        0x0 c:/nxp/bstudio_nxp/sdk/tools/ba-elf-ba2-r36379/bin/../lib/gcc/ba-elf/4.7.4/mcpu_jn51xx_sizeopt\libgcc.a(extendsfdf2.o)
 .data          0x0000000000000000        0x0 c:/nxp/bstudio_nxp/sdk/tools/ba-elf-ba2-r36379/bin/../lib/gcc/ba-elf/4.7.4/mcpu_jn51xx_sizeopt\libgcc.a(truncdfsf2.o)
 .bss           0x0000000000000000        0x0 c:/nxp/bstudio_nxp/sdk/tools/ba-elf-ba2-r36379/bin/../lib/gcc/ba-elf/4.7.4/mcpu_jn51xx_sizeopt\libgcc.a(truncdfsf2.o)
 .data          0x0000000000000000        0x0 c:/NXP/bstudio_nxp/workspace/JN-AN-1171-ZigBee-LightLink-Demo/Light_ExtendedColorLight/Build/os_irq.o
 .bss           0x0000000000000000        0x0 c:/NXP/bstudio_nxp/workspace/JN-AN-1171-ZigBee-LightLink-Demo/Light_ExtendedColorLight/Build/os_irq.o
 .data          0x0000000000000000        0x0 c:/NXP/bstudio_nxp/workspace/JN-AN-1171-ZigBee-LightLink-Demo/Light_ExtendedColorLight/Build/os_irq_alignment.o
 .bss           0x0000000000000000        0x0 c:/NXP/bstudio_nxp/workspace/JN-AN-1171-ZigBee-LightLink-Demo/Light_ExtendedColorLight/Build/os_irq_alignment.o
 .data          0x0000000000000000        0x0 c:/NXP/bstudio_nxp/workspace/JN-AN-1171-ZigBee-LightLink-Demo/Light_ExtendedColorLight/Build/os_irq_buserror.o
 .bss           0x0000000000000000        0x0 c:/NXP/bstudio_nxp/workspace/JN-AN-1171-ZigBee-LightLink-Demo/Light_ExtendedColorLight/Build/os_irq_buserror.o
 .data          0x0000000000000000        0x0 c:/NXP/bstudio_nxp/workspace/JN-AN-1171-ZigBee-LightLink-Demo/Light_ExtendedColorLight/Build/os_irq_illegalinstruction.o
 .bss           0x0000000000000000        0x0 c:/NXP/bstudio_nxp/workspace/JN-AN-1171-ZigBee-LightLink-Demo/Light_ExtendedColorLight/Build/os_irq_illegalinstruction.o
 .data          0x0000000000000000        0x0 c:/NXP/bstudio_nxp/workspace/JN-AN-1171-ZigBee-LightLink-Demo/Light_ExtendedColorLight/Build/os_irq_stackoverflowexception.o
 .bss           0x0000000000000000        0x0 c:/NXP/bstudio_nxp/workspace/JN-AN-1171-ZigBee-LightLink-Demo/Light_ExtendedColorLight/Build/os_irq_stackoverflowexception.o
 .data          0x0000000000000000        0x0 c:/NXP/bstudio_nxp/workspace/JN-AN-1171-ZigBee-LightLink-Demo/Light_ExtendedColorLight/Build/os_irq_unimplementedmodule.o
 .bss           0x0000000000000000        0x0 c:/NXP/bstudio_nxp/workspace/JN-AN-1171-ZigBee-LightLink-Demo/Light_ExtendedColorLight/Build/os_irq_unimplementedmodule.o
 .text          0x0000000000000000        0x0 c:/NXP/bstudio_nxp/workspace/JN-AN-1171-ZigBee-LightLink-Demo/Light_ExtendedColorLight/Build/pdum_gen.o (symbol from plugin)
 .text          0x0000000000000000        0x0 c:/NXP/bstudio_nxp/workspace/JN-AN-1171-ZigBee-LightLink-Demo/Light_ExtendedColorLight/Build/pdum_apdu.o
 .data          0x0000000000000000        0x0 c:/NXP/bstudio_nxp/workspace/JN-AN-1171-ZigBee-LightLink-Demo/Light_ExtendedColorLight/Build/pdum_apdu.o
 .bss           0x0000000000000000        0x0 c:/NXP/bstudio_nxp/workspace/JN-AN-1171-ZigBee-LightLink-Demo/Light_ExtendedColorLight/Build/pdum_apdu.o
 .text          0x0000000000000000        0x0 c:/NXP/bstudio_nxp/workspace/JN-AN-1171-ZigBee-LightLink-Demo/Light_ExtendedColorLight/Build/zps_gen.o (symbol from plugin)
 .text          0x0000000000000000        0x0 c:/NXP/bstudio_nxp/workspace/JN-AN-1171-ZigBee-LightLink-Demo/Light_ExtendedColorLight/Build/app_timer_driver.o (symbol from plugin)
 .text          0x0000000000000000        0x0 c:/NXP/bstudio_nxp/workspace/JN-AN-1171-ZigBee-LightLink-Demo/Light_ExtendedColorLight/Build/app_start_light.o (symbol from plugin)
 .text          0x0000000000000000        0x0 c:/NXP/bstudio_nxp/workspace/JN-AN-1171-ZigBee-LightLink-Demo/Light_ExtendedColorLight/Build/app_scenes.o (symbol from plugin)
 .text          0x0000000000000000        0x0 c:/NXP/bstudio_nxp/workspace/JN-AN-1171-ZigBee-LightLink-Demo/Light_ExtendedColorLight/Build/app_power_on_counter.o (symbol from plugin)
 .text          0x0000000000000000        0x0 c:/NXP/bstudio_nxp/workspace/JN-AN-1171-ZigBee-LightLink-Demo/Light_ExtendedColorLight/Build/zpr_light_node.o (symbol from plugin)
 .text          0x0000000000000000        0x0 c:/NXP/bstudio_nxp/workspace/JN-AN-1171-ZigBee-LightLink-Demo/Light_ExtendedColorLight/Build/ecb_decrypt.o (symbol from plugin)
 .text          0x0000000000000000        0x0 c:/NXP/bstudio_nxp/workspace/JN-AN-1171-ZigBee-LightLink-Demo/Light_ExtendedColorLight/Build/app_zcl_light_task.o (symbol from plugin)
 .text          0x0000000000000000        0x0 c:/NXP/bstudio_nxp/workspace/JN-AN-1171-ZigBee-LightLink-Demo/Light_ExtendedColorLight/Build/app_light_commission_task.o (symbol from plugin)
 .text          0x0000000000000000        0x0 c:/NXP/bstudio_nxp/workspace/JN-AN-1171-ZigBee-LightLink-Demo/Light_ExtendedColorLight/Build/app_manage_temperature.o (symbol from plugin)
 .text          0x0000000000000000        0x0 c:/NXP/bstudio_nxp/workspace/JN-AN-1171-ZigBee-LightLink-Demo/Light_ExtendedColorLight/Build/app_ota_client.o (symbol from plugin)
 .text          0x0000000000000000        0x0 c:/NXP/bstudio_nxp/workspace/JN-AN-1171-ZigBee-LightLink-Demo/Light_ExtendedColorLight/Build/app_light_interpolation.o (symbol from plugin)
 .text          0x0000000000000000        0x0 c:/NXP/bstudio_nxp/workspace/JN-AN-1171-ZigBee-LightLink-Demo/Light_ExtendedColorLight/Build/appZpsBeaconHandler.o (symbol from plugin)
 .text          0x0000000000000000        0x0 c:/NXP/bstudio_nxp/workspace/JN-AN-1171-ZigBee-LightLink-Demo/Light_ExtendedColorLight/Build/App_Light_ExtendedColorLight.o (symbol from plugin)
 .text          0x0000000000000000        0x0 c:/NXP/bstudio_nxp/workspace/JN-AN-1171-ZigBee-LightLink-Demo/Light_ExtendedColorLight/Build/DriverBulb_DR1175.o (symbol from plugin)
 .text          0x0000000000000000        0x0 c:/NXP/bstudio_nxp/workspace/JN-AN-1171-ZigBee-LightLink-Demo/Light_ExtendedColorLight/Build/DriverBulb_Shim.o (symbol from plugin)
 .text          0x0000000000000000        0x0 c:/NXP/bstudio_nxp/workspace/JN-AN-1171-ZigBee-LightLink-Demo/Light_ExtendedColorLight/Build/app_buttons.o (symbol from plugin)
 .text          0x0000000000000000        0x0 c:/NXP/bstudio_nxp/workspace/JN-AN-1171-ZigBee-LightLink-Demo/Light_ExtendedColorLight/Build/Alarms.o (symbol from plugin)
 .text          0x0000000000000000        0x0 c:/NXP/bstudio_nxp/workspace/JN-AN-1171-ZigBee-LightLink-Demo/Light_ExtendedColorLight/Build/AlarmsClientCommands.o (symbol from plugin)
 .text          0x0000000000000000        0x0 c:/NXP/bstudio_nxp/workspace/JN-AN-1171-ZigBee-LightLink-Demo/Light_ExtendedColorLight/Build/AlarmsCommandHandler.o (symbol from plugin)
 .text          0x0000000000000000        0x0 c:/NXP/bstudio_nxp/workspace/JN-AN-1171-ZigBee-LightLink-Demo/Light_ExtendedColorLight/Build/AlarmsServerCommands.o (symbol from plugin)
 .text          0x0000000000000000        0x0 c:/NXP/bstudio_nxp/workspace/JN-AN-1171-ZigBee-LightLink-Demo/Light_ExtendedColorLight/Build/AlarmsTableManager.o (symbol from plugin)
 .text          0x0000000000000000        0x0 c:/NXP/bstudio_nxp/workspace/JN-AN-1171-ZigBee-LightLink-Demo/Light_ExtendedColorLight/Build/AnalogInputBasic.o (symbol from plugin)
 .text          0x0000000000000000        0x0 c:/NXP/bstudio_nxp/workspace/JN-AN-1171-ZigBee-LightLink-Demo/Light_ExtendedColorLight/Build/AnalogOutputBasic.o (symbol from plugin)
 .text          0x0000000000000000        0x0 c:/NXP/bstudio_nxp/workspace/JN-AN-1171-ZigBee-LightLink-Demo/Light_ExtendedColorLight/Build/Basic.o (symbol from plugin)
 .text          0x0000000000000000        0x0 c:/NXP/bstudio_nxp/workspace/JN-AN-1171-ZigBee-LightLink-Demo/Light_ExtendedColorLight/Build/BasicClientCommands.o (symbol from plugin)
 .text          0x0000000000000000        0x0 c:/NXP/bstudio_nxp/workspace/JN-AN-1171-ZigBee-LightLink-Demo/Light_ExtendedColorLight/Build/BasicCommandHandler.o (symbol from plugin)
 .text          0x0000000000000000        0x0 c:/NXP/bstudio_nxp/workspace/JN-AN-1171-ZigBee-LightLink-Demo/Light_ExtendedColorLight/Build/BinaryInputBasic.o (symbol from plugin)
 .text          0x0000000000000000        0x0 c:/NXP/bstudio_nxp/workspace/JN-AN-1171-ZigBee-LightLink-Demo/Light_ExtendedColorLight/Build/BinaryOutputBasic.o (symbol from plugin)
 .text          0x0000000000000000        0x0 c:/NXP/bstudio_nxp/workspace/JN-AN-1171-ZigBee-LightLink-Demo/Light_ExtendedColorLight/Build/Commissioning.o (symbol from plugin)
 .text          0x0000000000000000        0x0 c:/NXP/bstudio_nxp/workspace/JN-AN-1171-ZigBee-LightLink-Demo/Light_ExtendedColorLight/Build/DeviceTemperatureConfiguration.o (symbol from plugin)
 .text          0x0000000000000000        0x0 c:/NXP/bstudio_nxp/workspace/JN-AN-1171-ZigBee-LightLink-Demo/Light_ExtendedColorLight/Build/Diagnostics.o (symbol from plugin)
 .text          0x0000000000000000        0x0 c:/NXP/bstudio_nxp/workspace/JN-AN-1171-ZigBee-LightLink-Demo/Light_ExtendedColorLight/Build/DoorLock.o (symbol from plugin)
 .text          0x0000000000000000        0x0 c:/NXP/bstudio_nxp/workspace/JN-AN-1171-ZigBee-LightLink-Demo/Light_ExtendedColorLight/Build/DoorLockCommandHandler.o (symbol from plugin)
 .text          0x0000000000000000        0x0 c:/NXP/bstudio_nxp/workspace/JN-AN-1171-ZigBee-LightLink-Demo/Light_ExtendedColorLight/Build/DoorLockCommands.o (symbol from plugin)
 .text          0x0000000000000000        0x0 c:/NXP/bstudio_nxp/workspace/JN-AN-1171-ZigBee-LightLink-Demo/Light_ExtendedColorLight/Build/ElectricalMeasurement.o (symbol from plugin)
 .text          0x0000000000000000        0x0 c:/NXP/bstudio_nxp/workspace/JN-AN-1171-ZigBee-LightLink-Demo/Light_ExtendedColorLight/Build/Groups.o (symbol from plugin)
 .text          0x0000000000000000        0x0 c:/NXP/bstudio_nxp/workspace/JN-AN-1171-ZigBee-LightLink-Demo/Light_ExtendedColorLight/Build/GroupsClientCommands.o (symbol from plugin)
 .text          0x0000000000000000        0x0 c:/NXP/bstudio_nxp/workspace/JN-AN-1171-ZigBee-LightLink-Demo/Light_ExtendedColorLight/Build/GroupsCommandHandler.o (symbol from plugin)
 .text          0x0000000000000000        0x0 c:/NXP/bstudio_nxp/workspace/JN-AN-1171-ZigBee-LightLink-Demo/Light_ExtendedColorLight/Build/GroupsServerCommands.o (symbol from plugin)
 .text          0x0000000000000000        0x0 c:/NXP/bstudio_nxp/workspace/JN-AN-1171-ZigBee-LightLink-Demo/Light_ExtendedColorLight/Build/GroupsTableManager.o (symbol from plugin)
 .text          0x0000000000000000        0x0 c:/NXP/bstudio_nxp/workspace/JN-AN-1171-ZigBee-LightLink-Demo/Light_ExtendedColorLight/Build/Identify.o (symbol from plugin)
 .text          0x0000000000000000        0x0 c:/NXP/bstudio_nxp/workspace/JN-AN-1171-ZigBee-LightLink-Demo/Light_ExtendedColorLight/Build/IdentifyClientCommands.o (symbol from plugin)
 .text          0x0000000000000000        0x0 c:/NXP/bstudio_nxp/workspace/JN-AN-1171-ZigBee-LightLink-Demo/Light_ExtendedColorLight/Build/IdentifyCommandHandler.o (symbol from plugin)
 .text          0x0000000000000000        0x0 c:/NXP/bstudio_nxp/workspace/JN-AN-1171-ZigBee-LightLink-Demo/Light_ExtendedColorLight/Build/IdentifyServerCommands.o (symbol from plugin)
 .text          0x0000000000000000        0x0 c:/NXP/bstudio_nxp/workspace/JN-AN-1171-ZigBee-LightLink-Demo/Light_ExtendedColorLight/Build/LevelControl.o (symbol from plugin)
 .text          0x0000000000000000        0x0 c:/NXP/bstudio_nxp/workspace/JN-AN-1171-ZigBee-LightLink-Demo/Light_ExtendedColorLight/Build/LevelControlClientCommands.o (symbol from plugin)
 .text          0x0000000000000000        0x0 c:/NXP/bstudio_nxp/workspace/JN-AN-1171-ZigBee-LightLink-Demo/Light_ExtendedColorLight/Build/LevelControlCommandHandler.o (symbol from plugin)
 .text          0x0000000000000000        0x0 c:/NXP/bstudio_nxp/workspace/JN-AN-1171-ZigBee-LightLink-Demo/Light_ExtendedColorLight/Build/MultistateInputBasic.o (symbol from plugin)
 .text          0x0000000000000000        0x0 c:/NXP/bstudio_nxp/workspace/JN-AN-1171-ZigBee-LightLink-Demo/Light_ExtendedColorLight/Build/MultistateOutputBasic.o (symbol from plugin)
 .text          0x0000000000000000        0x0 c:/NXP/bstudio_nxp/workspace/JN-AN-1171-ZigBee-LightLink-Demo/Light_ExtendedColorLight/Build/OOSC.o (symbol from plugin)
 .text          0x0000000000000000        0x0 c:/NXP/bstudio_nxp/workspace/JN-AN-1171-ZigBee-LightLink-Demo/Light_ExtendedColorLight/Build/OnOff.o (symbol from plugin)
 .text          0x0000000000000000        0x0 c:/NXP/bstudio_nxp/workspace/JN-AN-1171-ZigBee-LightLink-Demo/Light_ExtendedColorLight/Build/OnOffCommandHandler.o (symbol from plugin)
 .text          0x0000000000000000        0x0 c:/NXP/bstudio_nxp/workspace/JN-AN-1171-ZigBee-LightLink-Demo/Light_ExtendedColorLight/Build/OnOffCommands.o (symbol from plugin)
 .text          0x0000000000000000        0x0 c:/NXP/bstudio_nxp/workspace/JN-AN-1171-ZigBee-LightLink-Demo/Light_ExtendedColorLight/Build/PollControl.o (symbol from plugin)
 .text          0x0000000000000000        0x0 c:/NXP/bstudio_nxp/workspace/JN-AN-1171-ZigBee-LightLink-Demo/Light_ExtendedColorLight/Build/PollControlClientCommands.o (symbol from plugin)
 .text          0x0000000000000000        0x0 c:/NXP/bstudio_nxp/workspace/JN-AN-1171-ZigBee-LightLink-Demo/Light_ExtendedColorLight/Build/PollControlCommandHandler.o (symbol from plugin)
 .text          0x0000000000000000        0x0 c:/NXP/bstudio_nxp/workspace/JN-AN-1171-ZigBee-LightLink-Demo/Light_ExtendedColorLight/Build/PollControlServerCommands.o (symbol from plugin)
 .text          0x0000000000000000        0x0 c:/NXP/bstudio_nxp/workspace/JN-AN-1171-ZigBee-LightLink-Demo/Light_ExtendedColorLight/Build/PowerConfiguration.o (symbol from plugin)
 .text          0x0000000000000000        0x0 c:/NXP/bstudio_nxp/workspace/JN-AN-1171-ZigBee-LightLink-Demo/Light_ExtendedColorLight/Build/Scenes.o (symbol from plugin)
 .text          0x0000000000000000        0x0 c:/NXP/bstudio_nxp/workspace/JN-AN-1171-ZigBee-LightLink-Demo/Light_ExtendedColorLight/Build/ScenesClientCommands.o (symbol from plugin)
 .text          0x0000000000000000        0x0 c:/NXP/bstudio_nxp/workspace/JN-AN-1171-ZigBee-LightLink-Demo/Light_ExtendedColorLight/Build/ScenesClusterManagement.o (symbol from plugin)
 .text          0x0000000000000000        0x0 c:/NXP/bstudio_nxp/workspace/JN-AN-1171-ZigBee-LightLink-Demo/Light_ExtendedColorLight/Build/ScenesCommandHandler.o (symbol from plugin)
 .text          0x0000000000000000        0x0 c:/NXP/bstudio_nxp/workspace/JN-AN-1171-ZigBee-LightLink-Demo/Light_ExtendedColorLight/Build/ScenesServerCommands.o (symbol from plugin)
 .text          0x0000000000000000        0x0 c:/NXP/bstudio_nxp/workspace/JN-AN-1171-ZigBee-LightLink-Demo/Light_ExtendedColorLight/Build/ScenesTableManager.o (symbol from plugin)
 .text          0x0000000000000000        0x0 c:/NXP/bstudio_nxp/workspace/JN-AN-1171-ZigBee-LightLink-Demo/Light_ExtendedColorLight/Build/TC.o (symbol from plugin)
 .text          0x0000000000000000        0x0 c:/NXP/bstudio_nxp/workspace/JN-AN-1171-ZigBee-LightLink-Demo/Light_ExtendedColorLight/Build/Time.o (symbol from plugin)
 .text          0x0000000000000000        0x0 c:/NXP/bstudio_nxp/workspace/JN-AN-1171-ZigBee-LightLink-Demo/Light_ExtendedColorLight/Build/zll_CommissionCmdHandler.o (symbol from plugin)
 .text          0x0000000000000000        0x0 c:/NXP/bstudio_nxp/workspace/JN-AN-1171-ZigBee-LightLink-Demo/Light_ExtendedColorLight/Build/zll_UtilityCmdHandler.o (symbol from plugin)
 .text          0x0000000000000000        0x0 c:/NXP/bstudio_nxp/workspace/JN-AN-1171-ZigBee-LightLink-Demo/Light_ExtendedColorLight/Build/zll_commission.o (symbol from plugin)
 .text          0x0000000000000000        0x0 c:/NXP/bstudio_nxp/workspace/JN-AN-1171-ZigBee-LightLink-Demo/Light_ExtendedColorLight/Build/zll_utility.o (symbol from plugin)
 .text          0x0000000000000000        0x0 c:/NXP/bstudio_nxp/workspace/JN-AN-1171-ZigBee-LightLink-Demo/Light_ExtendedColorLight/Build/colour_light.o (symbol from plugin)
 .text          0x0000000000000000        0x0 c:/NXP/bstudio_nxp/workspace/JN-AN-1171-ZigBee-LightLink-Demo/Light_ExtendedColorLight/Build/colour_remote.o (symbol from plugin)
 .text          0x0000000000000000        0x0 c:/NXP/bstudio_nxp/workspace/JN-AN-1171-ZigBee-LightLink-Demo/Light_ExtendedColorLight/Build/colour_scene_remote.o (symbol from plugin)
 .text          0x0000000000000000        0x0 c:/NXP/bstudio_nxp/workspace/JN-AN-1171-ZigBee-LightLink-Demo/Light_ExtendedColorLight/Build/colour_temperature_light.o (symbol from plugin)
 .text          0x0000000000000000        0x0 c:/NXP/bstudio_nxp/workspace/JN-AN-1171-ZigBee-LightLink-Demo/Light_ExtendedColorLight/Build/commission_endpoint.o (symbol from plugin)
 .text          0x0000000000000000        0x0 c:/NXP/bstudio_nxp/workspace/JN-AN-1171-ZigBee-LightLink-Demo/Light_ExtendedColorLight/Build/control_bridge.o (symbol from plugin)
 .text          0x0000000000000000        0x0 c:/NXP/bstudio_nxp/workspace/JN-AN-1171-ZigBee-LightLink-Demo/Light_ExtendedColorLight/Build/dimmable_light.o (symbol from plugin)
 .text          0x0000000000000000        0x0 c:/NXP/bstudio_nxp/workspace/JN-AN-1171-ZigBee-LightLink-Demo/Light_ExtendedColorLight/Build/dimmable_plug.o (symbol from plugin)
 .text          0x0000000000000000        0x0 c:/NXP/bstudio_nxp/workspace/JN-AN-1171-ZigBee-LightLink-Demo/Light_ExtendedColorLight/Build/extended_colour_light.o (symbol from plugin)
 .text          0x0000000000000000        0x0 c:/NXP/bstudio_nxp/workspace/JN-AN-1171-ZigBee-LightLink-Demo/Light_ExtendedColorLight/Build/non_colour_remote.o (symbol from plugin)
 .text          0x0000000000000000        0x0 c:/NXP/bstudio_nxp/workspace/JN-AN-1171-ZigBee-LightLink-Demo/Light_ExtendedColorLight/Build/non_colour_scene_remote.o (symbol from plugin)
 .text          0x0000000000000000        0x0 c:/NXP/bstudio_nxp/workspace/JN-AN-1171-ZigBee-LightLink-Demo/Light_ExtendedColorLight/Build/on_off_light.o (symbol from plugin)
 .text          0x0000000000000000        0x0 c:/NXP/bstudio_nxp/workspace/JN-AN-1171-ZigBee-LightLink-Demo/Light_ExtendedColorLight/Build/on_off_plug.o (symbol from plugin)
 .text          0x0000000000000000        0x0 c:/NXP/bstudio_nxp/workspace/JN-AN-1171-ZigBee-LightLink-Demo/Light_ExtendedColorLight/Build/on_off_sensor.o (symbol from plugin)
 .text          0x0000000000000000        0x0 c:/NXP/bstudio_nxp/workspace/JN-AN-1171-ZigBee-LightLink-Demo/Light_ExtendedColorLight/Build/zll.o (symbol from plugin)
 .text          0x0000000000000000        0x0 c:/NXP/bstudio_nxp/workspace/JN-AN-1171-ZigBee-LightLink-Demo/Light_ExtendedColorLight/Build/BallastConfiguration.o (symbol from plugin)
 .text          0x0000000000000000        0x0 c:/NXP/bstudio_nxp/workspace/JN-AN-1171-ZigBee-LightLink-Demo/Light_ExtendedColorLight/Build/ColourControl.o (symbol from plugin)
 .text          0x0000000000000000        0x0 c:/NXP/bstudio_nxp/workspace/JN-AN-1171-ZigBee-LightLink-Demo/Light_ExtendedColorLight/Build/ColourControlClientCommands.o (symbol from plugin)
 .text          0x0000000000000000        0x0 c:/NXP/bstudio_nxp/workspace/JN-AN-1171-ZigBee-LightLink-Demo/Light_ExtendedColorLight/Build/ColourControlCommandHandler.o (symbol from plugin)
 .text          0x0000000000000000        0x0 c:/NXP/bstudio_nxp/workspace/JN-AN-1171-ZigBee-LightLink-Demo/Light_ExtendedColorLight/Build/ColourControlConversions.o (symbol from plugin)
 .text          0x0000000000000000        0x0 c:/NXP/bstudio_nxp/workspace/JN-AN-1171-ZigBee-LightLink-Demo/Light_ExtendedColorLight/Build/dlist.o (symbol from plugin)
 .text          0x0000000000000000        0x0 c:/NXP/bstudio_nxp/workspace/JN-AN-1171-ZigBee-LightLink-Demo/Light_ExtendedColorLight/Build/zcl.o (symbol from plugin)
 .text          0x0000000000000000        0x0 c:/NXP/bstudio_nxp/workspace/JN-AN-1171-ZigBee-LightLink-Demo/Light_ExtendedColorLight/Build/zcl_CustomCommandReceive.o (symbol from plugin)
 .text          0x0000000000000000        0x0 c:/NXP/bstudio_nxp/workspace/JN-AN-1171-ZigBee-LightLink-Demo/Light_ExtendedColorLight/Build/zcl_CustomCommandSend.o (symbol from plugin)
 .text          0x0000000000000000        0x0 c:/NXP/bstudio_nxp/workspace/JN-AN-1171-ZigBee-LightLink-Demo/Light_ExtendedColorLight/Build/zcl_PDUbufferReadWrite.o (symbol from plugin)
 .text          0x0000000000000000        0x0 c:/NXP/bstudio_nxp/workspace/JN-AN-1171-ZigBee-LightLink-Demo/Light_ExtendedColorLight/Build/zcl_PDUbufferReadWriteString.o (symbol from plugin)
 .text          0x0000000000000000        0x0 c:/NXP/bstudio_nxp/workspace/JN-AN-1171-ZigBee-LightLink-Demo/Light_ExtendedColorLight/Build/zcl_WriteAttributesRequestHandle.o (symbol from plugin)
 .text          0x0000000000000000        0x0 c:/NXP/bstudio_nxp/workspace/JN-AN-1171-ZigBee-LightLink-Demo/Light_ExtendedColorLight/Build/zcl_WriteAttributesRequestSend.o (symbol from plugin)
 .text          0x0000000000000000        0x0 c:/NXP/bstudio_nxp/workspace/JN-AN-1171-ZigBee-LightLink-Demo/Light_ExtendedColorLight/Build/zcl_WriteAttributesResponseHandle.o (symbol from plugin)
 .text          0x0000000000000000        0x0 c:/NXP/bstudio_nxp/workspace/JN-AN-1171-ZigBee-LightLink-Demo/Light_ExtendedColorLight/Build/zcl_attribute.o (symbol from plugin)
 .text          0x0000000000000000        0x0 c:/NXP/bstudio_nxp/workspace/JN-AN-1171-ZigBee-LightLink-Demo/Light_ExtendedColorLight/Build/zcl_buffer.o (symbol from plugin)
 .text          0x0000000000000000        0x0 c:/NXP/bstudio_nxp/workspace/JN-AN-1171-ZigBee-LightLink-Demo/Light_ExtendedColorLight/Build/zcl_clusterCommand.o (symbol from plugin)
 .text          0x0000000000000000        0x0 c:/NXP/bstudio_nxp/workspace/JN-AN-1171-ZigBee-LightLink-Demo/Light_ExtendedColorLight/Build/zcl_command.o (symbol from plugin)
 .text          0x0000000000000000        0x0 c:/NXP/bstudio_nxp/workspace/JN-AN-1171-ZigBee-LightLink-Demo/Light_ExtendedColorLight/Build/zcl_configureReportingCommandHandle.o (symbol from plugin)
 .text          0x0000000000000000        0x0 c:/NXP/bstudio_nxp/workspace/JN-AN-1171-ZigBee-LightLink-Demo/Light_ExtendedColorLight/Build/zcl_configureReportingCommandSend.o (symbol from plugin)
 .text          0x0000000000000000        0x0 c:/NXP/bstudio_nxp/workspace/JN-AN-1171-ZigBee-LightLink-Demo/Light_ExtendedColorLight/Build/zcl_configureReportingResponseHandle.o (symbol from plugin)
 .text          0x0000000000000000        0x0 c:/NXP/bstudio_nxp/workspace/JN-AN-1171-ZigBee-LightLink-Demo/Light_ExtendedColorLight/Build/zcl_defaultResponse.o (symbol from plugin)
 .text          0x0000000000000000        0x0 c:/NXP/bstudio_nxp/workspace/JN-AN-1171-ZigBee-LightLink-Demo/Light_ExtendedColorLight/Build/zcl_discoverAttributesExtendedRequestHandle.o (symbol from plugin)
 .text          0x0000000000000000        0x0 c:/NXP/bstudio_nxp/workspace/JN-AN-1171-ZigBee-LightLink-Demo/Light_ExtendedColorLight/Build/zcl_discoverAttributesExtendedRequestSend.o (symbol from plugin)
 .text          0x0000000000000000        0x0 c:/NXP/bstudio_nxp/workspace/JN-AN-1171-ZigBee-LightLink-Demo/Light_ExtendedColorLight/Build/zcl_discoverAttributesExtendedResponseHandle.o (symbol from plugin)
 .text          0x0000000000000000        0x0 c:/NXP/bstudio_nxp/workspace/JN-AN-1171-ZigBee-LightLink-Demo/Light_ExtendedColorLight/Build/zcl_discoverAttributesRequestHandle.o (symbol from plugin)
 .text          0x0000000000000000        0x0 c:/NXP/bstudio_nxp/workspace/JN-AN-1171-ZigBee-LightLink-Demo/Light_ExtendedColorLight/Build/zcl_discoverAttributesRequestSend.o (symbol from plugin)
 .text          0x0000000000000000        0x0 c:/NXP/bstudio_nxp/workspace/JN-AN-1171-ZigBee-LightLink-Demo/Light_ExtendedColorLight/Build/zcl_discoverAttributesResponseHandle.o (symbol from plugin)
 .text          0x0000000000000000        0x0 c:/NXP/bstudio_nxp/workspace/JN-AN-1171-ZigBee-LightLink-Demo/Light_ExtendedColorLight/Build/zcl_discoverCommandsRequestHandle.o (symbol from plugin)
 .text          0x0000000000000000        0x0 c:/NXP/bstudio_nxp/workspace/JN-AN-1171-ZigBee-LightLink-Demo/Light_ExtendedColorLight/Build/zcl_discoverCommandsRequestSend.o (symbol from plugin)
 .text          0x0000000000000000        0x0 c:/NXP/bstudio_nxp/workspace/JN-AN-1171-ZigBee-LightLink-Demo/Light_ExtendedColorLight/Build/zcl_discoverCommandsResponseHandle.o (symbol from plugin)
 .text          0x0000000000000000        0x0 c:/NXP/bstudio_nxp/workspace/JN-AN-1171-ZigBee-LightLink-Demo/Light_ExtendedColorLight/Build/zcl_event.o (symbol from plugin)
 .text          0x0000000000000000        0x0 c:/NXP/bstudio_nxp/workspace/JN-AN-1171-ZigBee-LightLink-Demo/Light_ExtendedColorLight/Build/zcl_heap.o (symbol from plugin)
 .text          0x0000000000000000        0x0 c:/NXP/bstudio_nxp/workspace/JN-AN-1171-ZigBee-LightLink-Demo/Light_ExtendedColorLight/Build/zcl_library_options.o (symbol from plugin)
 .text          0x0000000000000000        0x0 c:/NXP/bstudio_nxp/workspace/JN-AN-1171-ZigBee-LightLink-Demo/Light_ExtendedColorLight/Build/zcl_readAttributesRequestHandle.o (symbol from plugin)
 .text          0x0000000000000000        0x0 c:/NXP/bstudio_nxp/workspace/JN-AN-1171-ZigBee-LightLink-Demo/Light_ExtendedColorLight/Build/zcl_readAttributesRequestSend.o (symbol from plugin)
 .text          0x0000000000000000        0x0 c:/NXP/bstudio_nxp/workspace/JN-AN-1171-ZigBee-LightLink-Demo/Light_ExtendedColorLight/Build/zcl_readAttributesResponseHandle.o (symbol from plugin)
 .text          0x0000000000000000        0x0 c:/NXP/bstudio_nxp/workspace/JN-AN-1171-ZigBee-LightLink-Demo/Light_ExtendedColorLight/Build/zcl_readReportingConfigurationCommandHandle.o (symbol from plugin)
 .text          0x0000000000000000        0x0 c:/NXP/bstudio_nxp/workspace/JN-AN-1171-ZigBee-LightLink-Demo/Light_ExtendedColorLight/Build/zcl_readReportingConfigurationCommandSend.o (symbol from plugin)
 .text          0x0000000000000000        0x0 c:/NXP/bstudio_nxp/workspace/JN-AN-1171-ZigBee-LightLink-Demo/Light_ExtendedColorLight/Build/zcl_readReportingConfigurationResponseHandle.o (symbol from plugin)
 .text          0x0000000000000000        0x0 c:/NXP/bstudio_nxp/workspace/JN-AN-1171-ZigBee-LightLink-Demo/Light_ExtendedColorLight/Build/zcl_reportManager.o (symbol from plugin)
 .text          0x0000000000000000        0x0 c:/NXP/bstudio_nxp/workspace/JN-AN-1171-ZigBee-LightLink-Demo/Light_ExtendedColorLight/Build/zcl_reportMaths.o (symbol from plugin)
 .text          0x0000000000000000        0x0 c:/NXP/bstudio_nxp/workspace/JN-AN-1171-ZigBee-LightLink-Demo/Light_ExtendedColorLight/Build/zcl_reportScheduler.o (symbol from plugin)
 .text          0x0000000000000000        0x0 c:/NXP/bstudio_nxp/workspace/JN-AN-1171-ZigBee-LightLink-Demo/Light_ExtendedColorLight/Build/zcl_reportStringHandling.o (symbol from plugin)
 .text          0x0000000000000000        0x0 c:/NXP/bstudio_nxp/workspace/JN-AN-1171-ZigBee-LightLink-Demo/Light_ExtendedColorLight/Build/zcl_reportStructure.o (symbol from plugin)
 .text          0x0000000000000000        0x0 c:/NXP/bstudio_nxp/workspace/JN-AN-1171-ZigBee-LightLink-Demo/Light_ExtendedColorLight/Build/zcl_search.o (symbol from plugin)
 .text          0x0000000000000000        0x0 c:/NXP/bstudio_nxp/workspace/JN-AN-1171-ZigBee-LightLink-Demo/Light_ExtendedColorLight/Build/zcl_timer.o (symbol from plugin)
 .text          0x0000000000000000        0x0 c:/NXP/bstudio_nxp/workspace/JN-AN-1171-ZigBee-LightLink-Demo/Light_ExtendedColorLight/Build/zcl_transmit.o (symbol from plugin)
 .text          0x0000000000000000        0x0 c:/NXP/bstudio_nxp/workspace/JN-AN-1171-ZigBee-LightLink-Demo/Light_ExtendedColorLight/Build/OTA.o (symbol from plugin)
 .text          0x0000000000000000        0x0 c:/NXP/bstudio_nxp/workspace/JN-AN-1171-ZigBee-LightLink-Demo/Light_ExtendedColorLight/Build/OTA_ClientUpgradeManager.o (symbol from plugin)
 .text          0x0000000000000000        0x0 c:/NXP/bstudio_nxp/workspace/JN-AN-1171-ZigBee-LightLink-Demo/Light_ExtendedColorLight/Build/OTA_CustomCommandHandler.o (symbol from plugin)
 .text          0x0000000000000000        0x0 c:/NXP/bstudio_nxp/workspace/JN-AN-1171-ZigBee-LightLink-Demo/Light_ExtendedColorLight/Build/OTA_CustomReceiveCommands.o (symbol from plugin)
 .text          0x0000000000000000        0x0 c:/NXP/bstudio_nxp/workspace/JN-AN-1171-ZigBee-LightLink-Demo/Light_ExtendedColorLight/Build/OTA_ServerUpgradeManager.o (symbol from plugin)
 .text          0x0000000000000000        0x0 c:/NXP/bstudio_nxp/workspace/JN-AN-1171-ZigBee-LightLink-Demo/Light_ExtendedColorLight/Build/OTA_client.o (symbol from plugin)
 .text          0x0000000000000000        0x0 c:/NXP/bstudio_nxp/workspace/JN-AN-1171-ZigBee-LightLink-Demo/Light_ExtendedColorLight/Build/OTA_common.o (symbol from plugin)
 .text          0x0000000000000000        0x0 c:/NXP/bstudio_nxp/workspace/JN-AN-1171-ZigBee-LightLink-Demo/Light_ExtendedColorLight/Build/OTA_server.o (symbol from plugin)
 .text          0x0000000000000000        0x0 os.o (symbol from plugin)
 .data          0x0000000000000000        0x0 c:/NXP/bstudio_nxp/sdk/JN-SW-4168/Components/Library\libOS_JN516x.a(os_contirq_JN516x.o)
 .bss           0x0000000000000000        0x0 c:/NXP/bstudio_nxp/sdk/JN-SW-4168/Components/Library\libOS_JN516x.a(os_contirq_JN516x.o)
 .text          0x0000000000000000        0x0 pwrm.o (symbol from plugin)
 .data          0x0000000000000000        0x0 c:/NXP/bstudio_nxp/sdk/JN-SW-4168/Components/Library\libPWRM_JN516x.a(pwrm_setjmp_JN516x.o)
 .bss           0x0000000000000000        0x0 c:/NXP/bstudio_nxp/sdk/JN-SW-4168/Components/Library\libPWRM_JN516x.a(pwrm_setjmp_JN516x.o)
 .text          0x0000000000000000        0x0 pwrm_cold_start.o (symbol from plugin)
 .text          0x0000000000000000        0x0 pwrm_warm_start.o (symbol from plugin)
 .text          0x0000000000000000        0x0 aes_sw_mmo.o (symbol from plugin)
 .text          0x0000000000000000        0x0 pdum_nwk.o (symbol from plugin)
 .text          0x0000000000000000        0x0 pdum_apl.o (symbol from plugin)
 .text          0x0000000000000000        0x0 pdum.o (symbol from plugin)
 .text          0x0000000000000000        0x0 zps_apl_af.o (symbol from plugin)
 .text          0x0000000000000000        0x0 zps_apl_af_apsde.o (symbol from plugin)
 .text          0x0000000000000000        0x0 zps_apl_task.o (symbol from plugin)
 .text          0x0000000000000000        0x0 zps_apl_apsde.o (symbol from plugin)
 .text          0x0000000000000000        0x0 zps_apl_apsme.o (symbol from plugin)
 .text          0x0000000000000000        0x0 zps_apl_aps_nlde.o (symbol from plugin)
 .text          0x0000000000000000        0x0 zps_apl_sec.o (symbol from plugin)
 .text          0x0000000000000000        0x0 zps_apl_aib.o (symbol from plugin)
 .text          0x0000000000000000        0x0 zps_apl_zdo_nwkmanager.o (symbol from plugin)
 .text          0x0000000000000000        0x0 zps_apl_zdo_handle_zdp_event.o (symbol from plugin)
 .text          0x0000000000000000        0x0 zps_apl_zdo_trust_center.o (symbol from plugin)
 .text          0x0000000000000000        0x0 zps_apl_zdo_common.o (symbol from plugin)
 .text          0x0000000000000000        0x0 zps_apl_zdo_group.o (symbol from plugin)
 .text          0x0000000000000000        0x0 zps_apl_zdo_default_server.o (symbol from plugin)
 .text          0x0000000000000000        0x0 zps_apl_mac_isr.o (symbol from plugin)
 .text          0x0000000000000000        0x0 zps_apl_zdo_nwk_addr_server.o (symbol from plugin)
 .text          0x0000000000000000        0x0 zps_apl_zdo_ieee_addr_server.o (symbol from plugin)
 .text          0x0000000000000000        0x0 zps_apl_zdo_match_desc_server.o (symbol from plugin)
 .text          0x0000000000000000        0x0 zps_apl_zdo_node_desc_server.o (symbol from plugin)
 .text          0x0000000000000000        0x0 zps_apl_zdo_simple_desc_server.o (symbol from plugin)
 .text          0x0000000000000000        0x0 zps_apl_zdo_power_desc_server.o (symbol from plugin)
 .text          0x0000000000000000        0x0 zps_apl_zdo_active_ep_server.o (symbol from plugin)
 .text          0x0000000000000000        0x0 zps_apl_zdo_device_annce_server.o (symbol from plugin)
 .text          0x0000000000000000        0x0 zps_apl_zdo_permit_joining_server.o (symbol from plugin)
 .text          0x0000000000000000        0x0 zps_apl_zdo_system_server_discovery_server.o (symbol from plugin)
 .text          0x0000000000000000        0x0 zps_apl_zdo_mgmt_lqi_server.o (symbol from plugin)
 .text          0x0000000000000000        0x0 zps_apl_zdo_mgmt_rtg_server.o (symbol from plugin)
 .text          0x0000000000000000        0x0 zps_apl_zdo_mgmt_leave_server.o (symbol from plugin)
 .text          0x0000000000000000        0x0 zps_apl_zdo_mgmt_nwk_update_server.o (symbol from plugin)
 .text          0x0000000000000000        0x0 zps_apl_zdo_bound_data_request_manager.o (symbol from plugin)
 .text          0x0000000000000000        0x0 zps_apl_zdo_nwkmanager_client.o (symbol from plugin)
 .text          0x0000000000000000        0x0 zps_apl_zdp_apsde_req.o (symbol from plugin)
 .text          0x0000000000000000        0x0 zps_apl_zdp_device_annce.o (symbol from plugin)
 .text          0x0000000000000000        0x0 zps_apl_zdp_ieee_addr_req.o (symbol from plugin)
 .text          0x0000000000000000        0x0 zps_apl_zdp_match_desc_req.o (symbol from plugin)
 .text          0x0000000000000000        0x0 zps_apl_zdp_nwk_addr_rsp.o (symbol from plugin)
 .text          0x0000000000000000        0x0 zps_apl_zdp_ieee_addr_rsp.o (symbol from plugin)
 .text          0x0000000000000000        0x0 zps_apl_zdp_node_desc_rsp.o (symbol from plugin)
 .text          0x0000000000000000        0x0 zps_apl_zdp_power_desc_rsp.o (symbol from plugin)
 .text          0x0000000000000000        0x0 zps_apl_zdp_simple_desc_rsp.o (symbol from plugin)
 .text          0x0000000000000000        0x0 zps_apl_zdp_active_ep_rsp.o (symbol from plugin)
 .text          0x0000000000000000        0x0 zps_apl_zdp_match_desc_rsp.o (symbol from plugin)
 .text          0x0000000000000000        0x0 zps_apl_zdp_system_server_discovery_rsp.o (symbol from plugin)
 .text          0x0000000000000000        0x0 zps_apl_zdp_mgmt_lqi_rsp.o (symbol from plugin)
 .text          0x0000000000000000        0x0 zps_apl_zdp_mgmt_rtg_rsp.o (symbol from plugin)
 .text          0x0000000000000000        0x0 zps_apl_zdp_mgmt_leave_rsp.o (symbol from plugin)
 .text          0x0000000000000000        0x0 zps_apl_zdp_mgmt_nwk_update_notify_rsp.o (symbol from plugin)
 .text          0x0000000000000000        0x0 zps_apl_zdp_mgmt_permit_joining_rsp.o (symbol from plugin)
 .text          0x0000000000000000        0x0 rnd_main.o (symbol from plugin)
 .text          0x0000000000000000        0x0 PDM_Create.o (symbol from plugin)
 .text          0x0000000000000000        0x0 PDM_EEPROMsegmentStatus.o (symbol from plugin)
 .text          0x0000000000000000        0x0 PDM_FileSystem.o (symbol from plugin)
 .text          0x0000000000000000        0x0 PDM_FileSystemData.o (symbol from plugin)
 .text          0x0000000000000000        0x0 PDM_FileSystemDelete.o (symbol from plugin)
 .text          0x0000000000000000        0x0 PDM_FileSystemGenerate.o (symbol from plugin)
 .text          0x0000000000000000        0x0 PDM_FileSystemHeaderAccessFunctions.o (symbol from plugin)
 .text          0x0000000000000000        0x0 PDM_FileSystemHeaderRepair.o (symbol from plugin)
 .text          0x0000000000000000        0x0 PDM_FileSystemHeaderVerify.o (symbol from plugin)
 .text          0x0000000000000000        0x0 PDM_FileSystemMove.o (symbol from plugin)
 .text          0x0000000000000000        0x0 PDM_FileSystemVerify.o (symbol from plugin)
 .text          0x0000000000000000        0x0 PDM_ImageBitmapReconstruct.o (symbol from plugin)
 .text          0x0000000000000000        0x0 PDM_SearchAndListOrder.o (symbol from plugin)
 .text          0x0000000000000000        0x0 PDM_Segment.o (symbol from plugin)
 .text          0x0000000000000000        0x0 PDM_SegmentData.o (symbol from plugin)
 .text          0x0000000000000000        0x0 PDM_SegmentReplace.o (symbol from plugin)
 .text          0x0000000000000000        0x0 PDM_SegmentSequenceExtendDelete.o (symbol from plugin)
 .text          0x0000000000000000        0x0 PDM_SegmentSequenceExtendReconstruct.o (symbol from plugin)
 .text          0x0000000000000000        0x0 PDM_SegmentSequenceSave.o (symbol from plugin)
 .text          0x0000000000000000        0x0 PDM_slist.o (symbol from plugin)
 .text          0x0000000000000000        0x0 PDM_WearLevelling.o (symbol from plugin)
 .text          0x0000000000000000        0x0 PDM_Bitmap.o (symbol from plugin)
 .text          0x0000000000000000        0x0 PDM_EEPROMheaderAccessFunctions.o (symbol from plugin)
 .text          0x0000000000000000        0x0 PDM_EEPROMheaderReadAndWrite.o (symbol from plugin)
 .text          0x0000000000000000        0x0 PDM_EEPROMReadAndWrite.o (symbol from plugin)
 .text          0x0000000000000000        0x0 PDM_FileSystemHeaderChecksum.o (symbol from plugin)
 .text          0x0000000000000000        0x0 PDM_SegmentSequenceExtendFilter.o (symbol from plugin)
 .text          0x0000000000000000        0x0 PDM_EEPROM.o (symbol from plugin)
 .text          0x0000000000000000        0x0 dbg.o (symbol from plugin)
 .text          0x0000000000000000        0x0 dbg_uart.o (symbol from plugin)
 .text          0x0000000000000000        0x0 dbg_exceptions.o (symbol from plugin)
 .text          0x0000000000000000        0x0 zps_apl_zll.o (symbol from plugin)
 .text          0x0000000000000000        0x0 zps_apl_options.o (symbol from plugin)
 .text          0x0000000000000000        0x0 zps_nwk_dcim.o (symbol from plugin)
 .text          0x0000000000000000        0x0 zps_nwk_lib.o (symbol from plugin)
 .text          0x0000000000000000        0x0 zps_nwk_lkst.o (symbol from plugin)
 .text          0x0000000000000000        0x0 zps_nwk_main.o (symbol from plugin)
 .text          0x0000000000000000        0x0 zps_nwk_maint.o (symbol from plugin)
 .text          0x0000000000000000        0x0 zps_nwk_mcps.o (symbol from plugin)
 .text          0x0000000000000000        0x0 zps_nwk_mlme.o (symbol from plugin)
 .text          0x0000000000000000        0x0 zps_nwk_nib.o (symbol from plugin)
 .text          0x0000000000000000        0x0 zps_nwk_nlde.o (symbol from plugin)
 .text          0x0000000000000000        0x0 zps_nwk_nlme.o (symbol from plugin)
 .text          0x0000000000000000        0x0 zps_nwk_pmjn.o (symbol from plugin)
 .text          0x0000000000000000        0x0 zps_nwk_rt.o (symbol from plugin)
 .text          0x0000000000000000        0x0 zps_nwk_sec.o (symbol from plugin)
 .text          0x0000000000000000        0x0 zps_nwk_slist.o (symbol from plugin)
 .text          0x0000000000000000        0x0 zps_nwk_actv_st.o (symbol from plugin)
 .text          0x0000000000000000        0x0 zps_nwk_btt.o (symbol from plugin)
 .text          0x0000000000000000        0x0 zps_nwk_disc.o (symbol from plugin)
 .text          0x0000000000000000        0x0 zps_nwk_disc_st.o (symbol from plugin)
 .text          0x0000000000000000        0x0 zps_nwk_form_st.o (symbol from plugin)
 .text          0x0000000000000000        0x0 zps_nwk_frm.o (symbol from plugin)
 .text          0x0000000000000000        0x0 zps_nwk_idle_st.o (symbol from plugin)
 .text          0x0000000000000000        0x0 zps_nwk_join.o (symbol from plugin)
 .text          0x0000000000000000        0x0 zps_nwk_join_st.o (symbol from plugin)
 .text          0x0000000000000000        0x0 zps_nwk_leave.o (symbol from plugin)
 .text          0x0000000000000000        0x0 zps_nwk_mac.o (symbol from plugin)
 .text          0x0000000000000000        0x0 zps_nwk_scan.o (symbol from plugin)
 .text          0x0000000000000000        0x0 zps_nwk_sync.o (symbol from plugin)
 .text          0x0000000000000000        0x0 zps_nwk_form.o (symbol from plugin)
 .text          0x0000000000000000        0x0 JN5148ReCal.o (symbol from plugin)
 .text          0x0000000000000000        0x0 Mini_Main.o (symbol from plugin)
 .text          0x0000000000000000        0x0 Mini_Association.o (symbol from plugin)
 .text          0x0000000000000000        0x0 Mini_Mcps.o (symbol from plugin)
 .text          0x0000000000000000        0x0 Mini_Running.o (symbol from plugin)
 .text          0x0000000000000000        0x0 Mini_Scan.o (symbol from plugin)
 .text          0x0000000000000000        0x0 Mini_TimerServer.o (symbol from plugin)
 .text          0x0000000000000000        0x0 Mini_TxRx.o (symbol from plugin)
 .text          0x0000000000000000        0x0 Endian.o (symbol from plugin)
 .text          0x0000000000000000        0x0 Mini_Poll.o (symbol from plugin)
 .text          0x0000000000000000        0x0 Mini_Shim.o (symbol from plugin)
 .text          0x0000000000000000        0x0 MMAC.o (symbol from plugin)
 .text          0x0000000000000000        0x0 MMAC_RadioInit_JN5169.o (symbol from plugin)
 .text          0x0000000000000000        0x0 JPT_RadioTxPowerTests.o (symbol from plugin)
 .text          0x0000000000000000        0x0 JPT_RadioSettings_JN5169.o (symbol from plugin)
 .text          0x0000000000000000        0x0 AEScoprocessorAPI.o (symbol from plugin)
 .text          0x0000000000000000        0x0 AEScoprocessorECB.o (symbol from plugin)
 .text          0x0000000000000000        0x0 AES_CCM_Star.o (symbol from plugin)
 .text          0x0000000000000000        0x0 AHI_Analogue.o (symbol from plugin)
 .text          0x0000000000000000        0x0 AHI_Dio.o (symbol from plugin)
 .text          0x0000000000000000        0x0 AHI_Reset.o (symbol from plugin)
 .text          0x0000000000000000        0x0 AHI_System.o (symbol from plugin)
 .text          0x0000000000000000        0x0 AHI_Timer.o (symbol from plugin)
 .text          0x0000000000000000        0x0 AHI_TimerInt.o (symbol from plugin)
 .text          0x0000000000000000        0x0 AHI_Uart.o (symbol from plugin)
 .text          0x0000000000000000        0x0 AHI_WakeTimer.o (symbol from plugin)
 .text          0x0000000000000000        0x0 AHI_Flash.o (symbol from plugin)
 .text          0x0000000000000000        0x0 AHI_Infrared.o (symbol from plugin)
 .text          0x0000000000000000        0x0 InternalFlashApi.o (symbol from plugin)
 .text          0x0000000000000000        0x0 EEP_EEPROM.o (symbol from plugin)
 .text          0x0000000000000000        0x0 AHI_TickTimer.o (symbol from plugin)
 .data          0x0000000000000000        0x0 c:/NXP/bstudio_nxp/sdk/JN-SW-4168/Components/Library\libHardwareApi_JN5169.a(AHI_Interrupt.o)
 .bss           0x0000000000000000        0x0 c:/NXP/bstudio_nxp/sdk/JN-SW-4168/Components/Library\libHardwareApi_JN5169.a(AHI_Interrupt.o)
 .text          0x0000000000000000        0x0 AHI_Spi.o (symbol from plugin)
 .text          0x0000000000000000        0x0 MicroInt_ba.o (symbol from plugin)
 .text          0x0000000000000000        0x0 c:/NXP/bstudio_nxp/sdk/JN-SW-4168/Components/Library\libMicroSpecific_JN516x.a(MicroSyscall_ba.o)
 .data          0x0000000000000000        0x0 c:/NXP/bstudio_nxp/sdk/JN-SW-4168/Components/Library\libMicroSpecific_JN516x.a(MicroSyscall_ba.o)
 .bss           0x0000000000000000        0x0 c:/NXP/bstudio_nxp/sdk/JN-SW-4168/Components/Library\libMicroSpecific_JN516x.a(MicroSyscall_ba.o)
 .text          0x0000000000000000        0x0 Heap.o (symbol from plugin)
 .text          0x0000000000000000        0x0 c:/NXP/bstudio_nxp/sdk/JN-SW-4168/Components/Library\libBoot_JN516x.a(ExceptionHandler.o)
 .data          0x0000000000000000        0x0 c:/NXP/bstudio_nxp/sdk/JN-SW-4168/Components/Library\libBoot_JN516x.a(ExceptionHandler.o)
 .bss           0x0000000000000000        0x0 c:/NXP/bstudio_nxp/sdk/JN-SW-4168/Components/Library\libBoot_JN516x.a(ExceptionHandler.o)
 .vsr_handlers  0x0000000000000000       0xa7 c:/NXP/bstudio_nxp/sdk/JN-SW-4168/Components/Library\libBoot_JN516x.a(ExceptionHandler.o)
 .text          0x0000000000000000        0x0 LightingBoard.o (symbol from plugin)
 .text          0x0000000000000000        0x0 PCA9634.o (symbol from plugin)
 .text          0x0000000000000000        0x0 SMBus.o (symbol from plugin)
 .text          0x0000000000000000        0x0 zps_miniMac.o (symbol from plugin)
 .text          0x0000000000000000        0x0 zps_tsv.o (symbol from plugin)
 .text          0x0000000000000000        0x0 aes_sw_hmac_mmo.o (symbol from plugin)
 .text          0x0000000000000000        0x0 zps_apl_inl.o (symbol from plugin)
 .text          0x0000000000000000        0x0 zps_apl_zdo_bind_manager.o (symbol from plugin)
 .text          0x0000000000000000        0x0 zps_apl_zdp_active_ep_req.o (symbol from plugin)
 .text          0x0000000000000000        0x0 zps_apl_zdp_active_ep_store_req.o (symbol from plugin)
 .text          0x0000000000000000        0x0 zps_apl_zdp_backup_source_bind_req.o (symbol from plugin)
 .text          0x0000000000000000        0x0 zps_apl_zdp_bind_register_req.o (symbol from plugin)
 .text          0x0000000000000000        0x0 zps_apl_zdp_bind_unbind_req.o (symbol from plugin)
 .text          0x0000000000000000        0x0 zps_apl_zdp_bkup_bind_table_req.o (symbol from plugin)
 .text          0x0000000000000000        0x0 zps_apl_zdp_complex_desc_req.o (symbol from plugin)
 .text          0x0000000000000000        0x0 zps_apl_zdp_discovery_cache_req.o (symbol from plugin)
 .text          0x0000000000000000        0x0 zps_apl_zdp_discovery_store_req.o (symbol from plugin)
 .text          0x0000000000000000        0x0 zps_apl_zdp_end_device_bind_req.o (symbol from plugin)
 .text          0x0000000000000000        0x0 zps_apl_zdp_extended_active_ep_req.o (symbol from plugin)
 .text          0x0000000000000000        0x0 zps_apl_zdp_extended_simple_desc_req.o (symbol from plugin)
 .text          0x0000000000000000        0x0 zps_apl_zdp_find_node_cache_req.o (symbol from plugin)
 .text          0x0000000000000000        0x0 zps_apl_zdp_mgmt_bind_req.o (symbol from plugin)
 .text          0x0000000000000000        0x0 zps_apl_zdp_mgmt_cache_req.o (symbol from plugin)
 .text          0x0000000000000000        0x0 zps_apl_zdp_mgmt_direct_join_req.o (symbol from plugin)
 .text          0x0000000000000000        0x0 zps_apl_zdp_mgmt_leave_req.o (symbol from plugin)
 .text          0x0000000000000000        0x0 zps_apl_zdp_mgmt_lqi_req.o (symbol from plugin)
 .text          0x0000000000000000        0x0 zps_apl_zdp_mgmt_nwk_disc_req.o (symbol from plugin)
 .text          0x0000000000000000        0x0 zps_apl_zdp_mgmt_nwk_update_req.o (symbol from plugin)
 .text          0x0000000000000000        0x0 zps_apl_zdp_mgmt_permit_joining_req.o (symbol from plugin)
 .text          0x0000000000000000        0x0 zps_apl_zdp_mgmt_rtg_req.o (symbol from plugin)
 .text          0x0000000000000000        0x0 zps_apl_zdp_node_desc_req.o (symbol from plugin)
 .text          0x0000000000000000        0x0 zps_apl_zdp_nwk_addr_req.o (symbol from plugin)
 .text          0x0000000000000000        0x0 zps_apl_zdp_power_desc_req.o (symbol from plugin)
 .text          0x0000000000000000        0x0 zps_apl_zdp_power_desc_store_req.o (symbol from plugin)
 .text          0x0000000000000000        0x0 zps_apl_zdp_recover_bind_table_req.o (symbol from plugin)
 .text          0x0000000000000000        0x0 zps_apl_zdp_recover_source_bind_req.o (symbol from plugin)
 .text          0x0000000000000000        0x0 zps_apl_zdp_remove_bkup_bind_entry_req.o (symbol from plugin)
 .text          0x0000000000000000        0x0 zps_apl_zdp_remove_node_cache_req.o (symbol from plugin)
 .text          0x0000000000000000        0x0 zps_apl_zdp_replace_device_req.o (symbol from plugin)
 .text          0x0000000000000000        0x0 zps_apl_zdp_simple_desc_req.o (symbol from plugin)
 .text          0x0000000000000000        0x0 zps_apl_zdp_simple_desc_store_req.o (symbol from plugin)
 .text          0x0000000000000000        0x0 zps_apl_zdp_system_server_discovery_req.o (symbol from plugin)
 .text          0x0000000000000000        0x0 zps_apl_zdp_store_bkup_bind_entry_req.o (symbol from plugin)
 .text          0x0000000000000000        0x0 zps_apl_zdp_node_desc_store_req.o (symbol from plugin)
 .text          0x0000000000000000        0x0 zps_apl_zdp_user_desc_req.o (symbol from plugin)
 .text          0x0000000000000000        0x0 zps_apl_zdp_user_desc_set.o (symbol from plugin)
 .text          0x0000000000000000        0x0 AHI_Si.o (symbol from plugin)
 .data          0x0000000000000000        0x0 c:/NXP/bstudio_nxp/sdk/JN-SW-4168/Components/Library\libOS_JN516x.a(os_version_lc.o)
 .bss           0x0000000000000000        0x0 c:/NXP/bstudio_nxp/sdk/JN-SW-4168/Components/Library\libOS_JN516x.a(os_version_lc.o)
 .data          0x0000000000000000        0x0 c:/NXP/bstudio_nxp/sdk/JN-SW-4168/Components/Library\libZPSAPL_JN516x.a(zps_apl_version_lc.o)
 .bss           0x0000000000000000        0x0 c:/NXP/bstudio_nxp/sdk/JN-SW-4168/Components/Library\libZPSAPL_JN516x.a(zps_apl_version_lc.o)
 .data          0x0000000000000000        0x0 c:/NXP/bstudio_nxp/sdk/JN-SW-4168/Components/Library\libZPSNWK_JN516x.a(zps_nwk_version_lc.o)
 .bss           0x0000000000000000        0x0 c:/NXP/bstudio_nxp/sdk/JN-SW-4168/Components/Library\libZPSNWK_JN516x.a(zps_nwk_version_lc.o)
 .data          0x0000000000000000        0x0 c:/nxp/bstudio_nxp/sdk/tools/ba-elf-ba2-r36379/bin/../lib/gcc/ba-elf/4.7.4/../../../../ba-elf/lib/mcpu_jn51xx_sizeopt\libm.a(lib_a-s_floor.o)
 .bss           0x0000000000000000        0x0 c:/nxp/bstudio_nxp/sdk/tools/ba-elf-ba2-r36379/bin/../lib/gcc/ba-elf/4.7.4/../../../../ba-elf/lib/mcpu_jn51xx_sizeopt\libm.a(lib_a-s_floor.o)

Memory Configuration

Name             Origin             Length             Attributes
flash            0x0000000000080000 0x0000000000080000
ram              0x000000000400004c 0x0000000000007fb4
*default*        0x0000000000000000 0xffffffffffffffff

Linker script and memory map

                0x0000000000001770                __stack_size = 0x1770
                0x00000000000007d0                __minimum_heap_size = 0x7d0
START GROUP
LOAD c:/NXP/bstudio_nxp/workspace/JN-AN-1171-ZigBee-LightLink-Demo/Light_ExtendedColorLight/Build/os_gen.o
LOAD C:\Users\Gillis\AppData\Local\Temp\ccnqav2l.ltrans0.ltrans.o
LOAD C:\Users\Gillis\AppData\Local\Temp\ccnqav2l.ltrans1.ltrans.o
LOAD C:\Users\Gillis\AppData\Local\Temp\ccnqav2l.ltrans2.ltrans.o
LOAD C:\Users\Gillis\AppData\Local\Temp\ccnqav2l.ltrans3.ltrans.o
LOAD C:\Users\Gillis\AppData\Local\Temp\ccnqav2l.ltrans4.ltrans.o
LOAD C:\Users\Gillis\AppData\Local\Temp\ccnqav2l.ltrans5.ltrans.o
LOAD C:\Users\Gillis\AppData\Local\Temp\ccnqav2l.ltrans6.ltrans.o
LOAD C:\Users\Gillis\AppData\Local\Temp\ccnqav2l.ltrans7.ltrans.o
LOAD C:\Users\Gillis\AppData\Local\Temp\ccnqav2l.ltrans8.ltrans.o
LOAD C:\Users\Gillis\AppData\Local\Temp\ccnqav2l.ltrans9.ltrans.o
LOAD C:\Users\Gillis\AppData\Local\Temp\ccnqav2l.ltrans10.ltrans.o
LOAD C:\Users\Gillis\AppData\Local\Temp\ccnqav2l.ltrans11.ltrans.o
LOAD C:\Users\Gillis\AppData\Local\Temp\ccnqav2l.ltrans12.ltrans.o
LOAD C:\Users\Gillis\AppData\Local\Temp\ccnqav2l.ltrans13.ltrans.o
LOAD C:\Users\Gillis\AppData\Local\Temp\ccnqav2l.ltrans14.ltrans.o
LOAD C:\Users\Gillis\AppData\Local\Temp\ccnqav2l.ltrans15.ltrans.o
LOAD C:\Users\Gillis\AppData\Local\Temp\ccnqav2l.ltrans16.ltrans.o
LOAD C:\Users\Gillis\AppData\Local\Temp\ccnqav2l.ltrans17.ltrans.o
LOAD C:\Users\Gillis\AppData\Local\Temp\ccnqav2l.ltrans18.ltrans.o
LOAD C:\Users\Gillis\AppData\Local\Temp\ccnqav2l.ltrans19.ltrans.o
LOAD C:\Users\Gillis\AppData\Local\Temp\ccnqav2l.ltrans20.ltrans.o
LOAD C:\Users\Gillis\AppData\Local\Temp\ccnqav2l.ltrans21.ltrans.o
LOAD C:\Users\Gillis\AppData\Local\Temp\ccnqav2l.ltrans22.ltrans.o
LOAD C:\Users\Gillis\AppData\Local\Temp\ccnqav2l.ltrans23.ltrans.o
LOAD C:\Users\Gillis\AppData\Local\Temp\ccnqav2l.ltrans24.ltrans.o
LOAD C:\Users\Gillis\AppData\Local\Temp\ccnqav2l.ltrans25.ltrans.o
LOAD C:\Users\Gillis\AppData\Local\Temp\ccnqav2l.ltrans26.ltrans.o
LOAD C:\Users\Gillis\AppData\Local\Temp\ccnqav2l.ltrans27.ltrans.o
LOAD C:\Users\Gillis\AppData\Local\Temp\ccnqav2l.ltrans28.ltrans.o
LOAD C:\Users\Gillis\AppData\Local\Temp\ccnqav2l.ltrans29.ltrans.o
LOAD C:\Users\Gillis\AppData\Local\Temp\ccnqav2l.ltrans30.ltrans.o
LOAD C:\Users\Gillis\AppData\Local\Temp\ccnqav2l.ltrans31.ltrans.o
LOAD c:/nxp/bstudio_nxp/sdk/tools/ba-elf-ba2-r36379/bin/../lib/gcc/ba-elf/4.7.4/../../../../ba-elf/lib/mcpu_jn51xx_sizeopt\libc.a
LOAD c:/nxp/bstudio_nxp/sdk/tools/ba-elf-ba2-r36379/bin/../lib/gcc/ba-elf/4.7.4/mcpu_jn51xx_sizeopt\libgcc.a
LOAD c:/nxp/bstudio_nxp/sdk/tools/ba-elf-ba2-r36379/bin/../lib/gcc/ba-elf/4.7.4/../../../../ba-elf/lib/mcpu_jn51xx_sizeopt\libc.a
LOAD c:/NXP/bstudio_nxp/workspace/JN-AN-1171-ZigBee-LightLink-Demo/Light_ExtendedColorLight/Build/os_irq.o
LOAD c:/NXP/bstudio_nxp/workspace/JN-AN-1171-ZigBee-LightLink-Demo/Light_ExtendedColorLight/Build/os_irq_alignment.o
LOAD c:/NXP/bstudio_nxp/workspace/JN-AN-1171-ZigBee-LightLink-Demo/Light_ExtendedColorLight/Build/os_irq_buserror.o
LOAD c:/NXP/bstudio_nxp/workspace/JN-AN-1171-ZigBee-LightLink-Demo/Light_ExtendedColorLight/Build/os_irq_illegalinstruction.o
LOAD c:/NXP/bstudio_nxp/workspace/JN-AN-1171-ZigBee-LightLink-Demo/Light_ExtendedColorLight/Build/os_irq_stackoverflowexception.o
LOAD c:/NXP/bstudio_nxp/workspace/JN-AN-1171-ZigBee-LightLink-Demo/Light_ExtendedColorLight/Build/os_irq_unimplementedmodule.o
LOAD c:/NXP/bstudio_nxp/workspace/JN-AN-1171-ZigBee-LightLink-Demo/Light_ExtendedColorLight/Build/pdum_gen.o
LOAD c:/NXP/bstudio_nxp/workspace/JN-AN-1171-ZigBee-LightLink-Demo/Light_ExtendedColorLight/Build/pdum_apdu.o
LOAD c:/NXP/bstudio_nxp/workspace/JN-AN-1171-ZigBee-LightLink-Demo/Light_ExtendedColorLight/Build/zps_gen.o
LOAD c:/NXP/bstudio_nxp/workspace/JN-AN-1171-ZigBee-LightLink-Demo/Light_ExtendedColorLight/Build/app_timer_driver.o
LOAD c:/NXP/bstudio_nxp/workspace/JN-AN-1171-ZigBee-LightLink-Demo/Light_ExtendedColorLight/Build/app_start_light.o
LOAD c:/NXP/bstudio_nxp/workspace/JN-AN-1171-ZigBee-LightLink-Demo/Light_ExtendedColorLight/Build/app_scenes.o
LOAD c:/NXP/bstudio_nxp/workspace/JN-AN-1171-ZigBee-LightLink-Demo/Light_ExtendedColorLight/Build/app_power_on_counter.o
LOAD c:/NXP/bstudio_nxp/workspace/JN-AN-1171-ZigBee-LightLink-Demo/Light_ExtendedColorLight/Build/zpr_light_node.o
LOAD c:/NXP/bstudio_nxp/workspace/JN-AN-1171-ZigBee-LightLink-Demo/Light_ExtendedColorLight/Build/ecb_decrypt.o
LOAD c:/NXP/bstudio_nxp/workspace/JN-AN-1171-ZigBee-LightLink-Demo/Light_ExtendedColorLight/Build/app_zcl_light_task.o
LOAD c:/NXP/bstudio_nxp/workspace/JN-AN-1171-ZigBee-LightLink-Demo/Light_ExtendedColorLight/Build/app_light_commission_task.o
LOAD c:/NXP/bstudio_nxp/workspace/JN-AN-1171-ZigBee-LightLink-Demo/Light_ExtendedColorLight/Build/app_manage_temperature.o
LOAD c:/NXP/bstudio_nxp/workspace/JN-AN-1171-ZigBee-LightLink-Demo/Light_ExtendedColorLight/Build/app_ota_client.o
LOAD c:/NXP/bstudio_nxp/workspace/JN-AN-1171-ZigBee-LightLink-Demo/Light_ExtendedColorLight/Build/app_light_interpolation.o
LOAD c:/NXP/bstudio_nxp/workspace/JN-AN-1171-ZigBee-LightLink-Demo/Light_ExtendedColorLight/Build/appZpsBeaconHandler.o
LOAD c:/NXP/bstudio_nxp/workspace/JN-AN-1171-ZigBee-LightLink-Demo/Light_ExtendedColorLight/Build/App_Light_ExtendedColorLight.o
LOAD c:/NXP/bstudio_nxp/workspace/JN-AN-1171-ZigBee-LightLink-Demo/Light_ExtendedColorLight/Build/DriverBulb_DR1175.o
LOAD c:/NXP/bstudio_nxp/workspace/JN-AN-1171-ZigBee-LightLink-Demo/Light_ExtendedColorLight/Build/DriverBulb_Shim.o
LOAD c:/NXP/bstudio_nxp/workspace/JN-AN-1171-ZigBee-LightLink-Demo/Light_ExtendedColorLight/Build/app_buttons.o
LOAD c:/NXP/bstudio_nxp/workspace/JN-AN-1171-ZigBee-LightLink-Demo/Light_ExtendedColorLight/Build/Alarms.o
LOAD c:/NXP/bstudio_nxp/workspace/JN-AN-1171-ZigBee-LightLink-Demo/Light_ExtendedColorLight/Build/AlarmsClientCommands.o
LOAD c:/NXP/bstudio_nxp/workspace/JN-AN-1171-ZigBee-LightLink-Demo/Light_ExtendedColorLight/Build/AlarmsCommandHandler.o
LOAD c:/NXP/bstudio_nxp/workspace/JN-AN-1171-ZigBee-LightLink-Demo/Light_ExtendedColorLight/Build/AlarmsServerCommands.o
LOAD c:/NXP/bstudio_nxp/workspace/JN-AN-1171-ZigBee-LightLink-Demo/Light_ExtendedColorLight/Build/AlarmsTableManager.o
LOAD c:/NXP/bstudio_nxp/workspace/JN-AN-1171-ZigBee-LightLink-Demo/Light_ExtendedColorLight/Build/AnalogInputBasic.o
LOAD c:/NXP/bstudio_nxp/workspace/JN-AN-1171-ZigBee-LightLink-Demo/Light_ExtendedColorLight/Build/AnalogOutputBasic.o
LOAD c:/NXP/bstudio_nxp/workspace/JN-AN-1171-ZigBee-LightLink-Demo/Light_ExtendedColorLight/Build/Basic.o
LOAD c:/NXP/bstudio_nxp/workspace/JN-AN-1171-ZigBee-LightLink-Demo/Light_ExtendedColorLight/Build/BasicClientCommands.o
LOAD c:/NXP/bstudio_nxp/workspace/JN-AN-1171-ZigBee-LightLink-Demo/Light_ExtendedColorLight/Build/BasicCommandHandler.o
LOAD c:/NXP/bstudio_nxp/workspace/JN-AN-1171-ZigBee-LightLink-Demo/Light_ExtendedColorLight/Build/BinaryInputBasic.o
LOAD c:/NXP/bstudio_nxp/workspace/JN-AN-1171-ZigBee-LightLink-Demo/Light_ExtendedColorLight/Build/BinaryOutputBasic.o
LOAD c:/NXP/bstudio_nxp/workspace/JN-AN-1171-ZigBee-LightLink-Demo/Light_ExtendedColorLight/Build/Commissioning.o
LOAD c:/NXP/bstudio_nxp/workspace/JN-AN-1171-ZigBee-LightLink-Demo/Light_ExtendedColorLight/Build/DeviceTemperatureConfiguration.o
LOAD c:/NXP/bstudio_nxp/workspace/JN-AN-1171-ZigBee-LightLink-Demo/Light_ExtendedColorLight/Build/Diagnostics.o
LOAD c:/NXP/bstudio_nxp/workspace/JN-AN-1171-ZigBee-LightLink-Demo/Light_ExtendedColorLight/Build/DoorLock.o
LOAD c:/NXP/bstudio_nxp/workspace/JN-AN-1171-ZigBee-LightLink-Demo/Light_ExtendedColorLight/Build/DoorLockCommandHandler.o
LOAD c:/NXP/bstudio_nxp/workspace/JN-AN-1171-ZigBee-LightLink-Demo/Light_ExtendedColorLight/Build/DoorLockCommands.o
LOAD c:/NXP/bstudio_nxp/workspace/JN-AN-1171-ZigBee-LightLink-Demo/Light_ExtendedColorLight/Build/ElectricalMeasurement.o
LOAD c:/NXP/bstudio_nxp/workspace/JN-AN-1171-ZigBee-LightLink-Demo/Light_ExtendedColorLight/Build/Groups.o
LOAD c:/NXP/bstudio_nxp/workspace/JN-AN-1171-ZigBee-LightLink-Demo/Light_ExtendedColorLight/Build/GroupsClientCommands.o
LOAD c:/NXP/bstudio_nxp/workspace/JN-AN-1171-ZigBee-LightLink-Demo/Light_ExtendedColorLight/Build/GroupsCommandHandler.o
LOAD c:/NXP/bstudio_nxp/workspace/JN-AN-1171-ZigBee-LightLink-Demo/Light_ExtendedColorLight/Build/GroupsServerCommands.o
LOAD c:/NXP/bstudio_nxp/workspace/JN-AN-1171-ZigBee-LightLink-Demo/Light_ExtendedColorLight/Build/GroupsTableManager.o
LOAD c:/NXP/bstudio_nxp/workspace/JN-AN-1171-ZigBee-LightLink-Demo/Light_ExtendedColorLight/Build/Identify.o
LOAD c:/NXP/bstudio_nxp/workspace/JN-AN-1171-ZigBee-LightLink-Demo/Light_ExtendedColorLight/Build/IdentifyClientCommands.o
LOAD c:/NXP/bstudio_nxp/workspace/JN-AN-1171-ZigBee-LightLink-Demo/Light_ExtendedColorLight/Build/IdentifyCommandHandler.o
LOAD c:/NXP/bstudio_nxp/workspace/JN-AN-1171-ZigBee-LightLink-Demo/Light_ExtendedColorLight/Build/IdentifyServerCommands.o
LOAD c:/NXP/bstudio_nxp/workspace/JN-AN-1171-ZigBee-LightLink-Demo/Light_ExtendedColorLight/Build/LevelControl.o
LOAD c:/NXP/bstudio_nxp/workspace/JN-AN-1171-ZigBee-LightLink-Demo/Light_ExtendedColorLight/Build/LevelControlClientCommands.o
LOAD c:/NXP/bstudio_nxp/workspace/JN-AN-1171-ZigBee-LightLink-Demo/Light_ExtendedColorLight/Build/LevelControlCommandHandler.o
LOAD c:/NXP/bstudio_nxp/workspace/JN-AN-1171-ZigBee-LightLink-Demo/Light_ExtendedColorLight/Build/MultistateInputBasic.o
LOAD c:/NXP/bstudio_nxp/workspace/JN-AN-1171-ZigBee-LightLink-Demo/Light_ExtendedColorLight/Build/MultistateOutputBasic.o
LOAD c:/NXP/bstudio_nxp/workspace/JN-AN-1171-ZigBee-LightLink-Demo/Light_ExtendedColorLight/Build/OOSC.o
LOAD c:/NXP/bstudio_nxp/workspace/JN-AN-1171-ZigBee-LightLink-Demo/Light_ExtendedColorLight/Build/OnOff.o
LOAD c:/NXP/bstudio_nxp/workspace/JN-AN-1171-ZigBee-LightLink-Demo/Light_ExtendedColorLight/Build/OnOffCommandHandler.o
LOAD c:/NXP/bstudio_nxp/workspace/JN-AN-1171-ZigBee-LightLink-Demo/Light_ExtendedColorLight/Build/OnOffCommands.o
LOAD c:/NXP/bstudio_nxp/workspace/JN-AN-1171-ZigBee-LightLink-Demo/Light_ExtendedColorLight/Build/PollControl.o
LOAD c:/NXP/bstudio_nxp/workspace/JN-AN-1171-ZigBee-LightLink-Demo/Light_ExtendedColorLight/Build/PollControlClientCommands.o
LOAD c:/NXP/bstudio_nxp/workspace/JN-AN-1171-ZigBee-LightLink-Demo/Light_ExtendedColorLight/Build/PollControlCommandHandler.o
LOAD c:/NXP/bstudio_nxp/workspace/JN-AN-1171-ZigBee-LightLink-Demo/Light_ExtendedColorLight/Build/PollControlServerCommands.o
LOAD c:/NXP/bstudio_nxp/workspace/JN-AN-1171-ZigBee-LightLink-Demo/Light_ExtendedColorLight/Build/PowerConfiguration.o
LOAD c:/NXP/bstudio_nxp/workspace/JN-AN-1171-ZigBee-LightLink-Demo/Light_ExtendedColorLight/Build/Scenes.o
LOAD c:/NXP/bstudio_nxp/workspace/JN-AN-1171-ZigBee-LightLink-Demo/Light_ExtendedColorLight/Build/ScenesClientCommands.o
LOAD c:/NXP/bstudio_nxp/workspace/JN-AN-1171-ZigBee-LightLink-Demo/Light_ExtendedColorLight/Build/ScenesClusterManagement.o
LOAD c:/NXP/bstudio_nxp/workspace/JN-AN-1171-ZigBee-LightLink-Demo/Light_ExtendedColorLight/Build/ScenesCommandHandler.o
LOAD c:/NXP/bstudio_nxp/workspace/JN-AN-1171-ZigBee-LightLink-Demo/Light_ExtendedColorLight/Build/ScenesServerCommands.o
LOAD c:/NXP/bstudio_nxp/workspace/JN-AN-1171-ZigBee-LightLink-Demo/Light_ExtendedColorLight/Build/ScenesTableManager.o
LOAD c:/NXP/bstudio_nxp/workspace/JN-AN-1171-ZigBee-LightLink-Demo/Light_ExtendedColorLight/Build/TC.o
LOAD c:/NXP/bstudio_nxp/workspace/JN-AN-1171-ZigBee-LightLink-Demo/Light_ExtendedColorLight/Build/Time.o
LOAD c:/NXP/bstudio_nxp/workspace/JN-AN-1171-ZigBee-LightLink-Demo/Light_ExtendedColorLight/Build/zll_CommissionCmdHandler.o
LOAD c:/NXP/bstudio_nxp/workspace/JN-AN-1171-ZigBee-LightLink-Demo/Light_ExtendedColorLight/Build/zll_UtilityCmdHandler.o
LOAD c:/NXP/bstudio_nxp/workspace/JN-AN-1171-ZigBee-LightLink-Demo/Light_ExtendedColorLight/Build/zll_commission.o
LOAD c:/NXP/bstudio_nxp/workspace/JN-AN-1171-ZigBee-LightLink-Demo/Light_ExtendedColorLight/Build/zll_utility.o
LOAD c:/NXP/bstudio_nxp/workspace/JN-AN-1171-ZigBee-LightLink-Demo/Light_ExtendedColorLight/Build/colour_light.o
LOAD c:/NXP/bstudio_nxp/workspace/JN-AN-1171-ZigBee-LightLink-Demo/Light_ExtendedColorLight/Build/colour_remote.o
LOAD c:/NXP/bstudio_nxp/workspace/JN-AN-1171-ZigBee-LightLink-Demo/Light_ExtendedColorLight/Build/colour_scene_remote.o
LOAD c:/NXP/bstudio_nxp/workspace/JN-AN-1171-ZigBee-LightLink-Demo/Light_ExtendedColorLight/Build/colour_temperature_light.o
LOAD c:/NXP/bstudio_nxp/workspace/JN-AN-1171-ZigBee-LightLink-Demo/Light_ExtendedColorLight/Build/commission_endpoint.o
LOAD c:/NXP/bstudio_nxp/workspace/JN-AN-1171-ZigBee-LightLink-Demo/Light_ExtendedColorLight/Build/control_bridge.o
LOAD c:/NXP/bstudio_nxp/workspace/JN-AN-1171-ZigBee-LightLink-Demo/Light_ExtendedColorLight/Build/dimmable_light.o
LOAD c:/NXP/bstudio_nxp/workspace/JN-AN-1171-ZigBee-LightLink-Demo/Light_ExtendedColorLight/Build/dimmable_plug.o
LOAD c:/NXP/bstudio_nxp/workspace/JN-AN-1171-ZigBee-LightLink-Demo/Light_ExtendedColorLight/Build/extended_colour_light.o
LOAD c:/NXP/bstudio_nxp/workspace/JN-AN-1171-ZigBee-LightLink-Demo/Light_ExtendedColorLight/Build/non_colour_remote.o
LOAD c:/NXP/bstudio_nxp/workspace/JN-AN-1171-ZigBee-LightLink-Demo/Light_ExtendedColorLight/Build/non_colour_scene_remote.o
LOAD c:/NXP/bstudio_nxp/workspace/JN-AN-1171-ZigBee-LightLink-Demo/Light_ExtendedColorLight/Build/on_off_light.o
LOAD c:/NXP/bstudio_nxp/workspace/JN-AN-1171-ZigBee-LightLink-Demo/Light_ExtendedColorLight/Build/on_off_plug.o
LOAD c:/NXP/bstudio_nxp/workspace/JN-AN-1171-ZigBee-LightLink-Demo/Light_ExtendedColorLight/Build/on_off_sensor.o
LOAD c:/NXP/bstudio_nxp/workspace/JN-AN-1171-ZigBee-LightLink-Demo/Light_ExtendedColorLight/Build/zll.o
LOAD c:/NXP/bstudio_nxp/workspace/JN-AN-1171-ZigBee-LightLink-Demo/Light_ExtendedColorLight/Build/BallastConfiguration.o
LOAD c:/NXP/bstudio_nxp/workspace/JN-AN-1171-ZigBee-LightLink-Demo/Light_ExtendedColorLight/Build/ColourControl.o
LOAD c:/NXP/bstudio_nxp/workspace/JN-AN-1171-ZigBee-LightLink-Demo/Light_ExtendedColorLight/Build/ColourControlClientCommands.o
LOAD c:/NXP/bstudio_nxp/workspace/JN-AN-1171-ZigBee-LightLink-Demo/Light_ExtendedColorLight/Build/ColourControlCommandHandler.o
LOAD c:/NXP/bstudio_nxp/workspace/JN-AN-1171-ZigBee-LightLink-Demo/Light_ExtendedColorLight/Build/ColourControlConversions.o
LOAD c:/NXP/bstudio_nxp/workspace/JN-AN-1171-ZigBee-LightLink-Demo/Light_ExtendedColorLight/Build/dlist.o
LOAD c:/NXP/bstudio_nxp/workspace/JN-AN-1171-ZigBee-LightLink-Demo/Light_ExtendedColorLight/Build/zcl.o
LOAD c:/NXP/bstudio_nxp/workspace/JN-AN-1171-ZigBee-LightLink-Demo/Light_ExtendedColorLight/Build/zcl_CustomCommandReceive.o
LOAD c:/NXP/bstudio_nxp/workspace/JN-AN-1171-ZigBee-LightLink-Demo/Light_ExtendedColorLight/Build/zcl_CustomCommandSend.o
LOAD c:/NXP/bstudio_nxp/workspace/JN-AN-1171-ZigBee-LightLink-Demo/Light_ExtendedColorLight/Build/zcl_PDUbufferReadWrite.o
LOAD c:/NXP/bstudio_nxp/workspace/JN-AN-1171-ZigBee-LightLink-Demo/Light_ExtendedColorLight/Build/zcl_PDUbufferReadWriteString.o
LOAD c:/NXP/bstudio_nxp/workspace/JN-AN-1171-ZigBee-LightLink-Demo/Light_ExtendedColorLight/Build/zcl_WriteAttributesRequestHandle.o
LOAD c:/NXP/bstudio_nxp/workspace/JN-AN-1171-ZigBee-LightLink-Demo/Light_ExtendedColorLight/Build/zcl_WriteAttributesRequestSend.o
LOAD c:/NXP/bstudio_nxp/workspace/JN-AN-1171-ZigBee-LightLink-Demo/Light_ExtendedColorLight/Build/zcl_WriteAttributesResponseHandle.o
LOAD c:/NXP/bstudio_nxp/workspace/JN-AN-1171-ZigBee-LightLink-Demo/Light_ExtendedColorLight/Build/zcl_attribute.o
LOAD c:/NXP/bstudio_nxp/workspace/JN-AN-1171-ZigBee-LightLink-Demo/Light_ExtendedColorLight/Build/zcl_buffer.o
LOAD c:/NXP/bstudio_nxp/workspace/JN-AN-1171-ZigBee-LightLink-Demo/Light_ExtendedColorLight/Build/zcl_clusterCommand.o
LOAD c:/NXP/bstudio_nxp/workspace/JN-AN-1171-ZigBee-LightLink-Demo/Light_ExtendedColorLight/Build/zcl_command.o
LOAD c:/NXP/bstudio_nxp/workspace/JN-AN-1171-ZigBee-LightLink-Demo/Light_ExtendedColorLight/Build/zcl_configureReportingCommandHandle.o
LOAD c:/NXP/bstudio_nxp/workspace/JN-AN-1171-ZigBee-LightLink-Demo/Light_ExtendedColorLight/Build/zcl_configureReportingCommandSend.o
LOAD c:/NXP/bstudio_nxp/workspace/JN-AN-1171-ZigBee-LightLink-Demo/Light_ExtendedColorLight/Build/zcl_configureReportingResponseHandle.o
LOAD c:/NXP/bstudio_nxp/workspace/JN-AN-1171-ZigBee-LightLink-Demo/Light_ExtendedColorLight/Build/zcl_defaultResponse.o
LOAD c:/NXP/bstudio_nxp/workspace/JN-AN-1171-ZigBee-LightLink-Demo/Light_ExtendedColorLight/Build/zcl_discoverAttributesExtendedRequestHandle.o
LOAD c:/NXP/bstudio_nxp/workspace/JN-AN-1171-ZigBee-LightLink-Demo/Light_ExtendedColorLight/Build/zcl_discoverAttributesExtendedRequestSend.o
LOAD c:/NXP/bstudio_nxp/workspace/JN-AN-1171-ZigBee-LightLink-Demo/Light_ExtendedColorLight/Build/zcl_discoverAttributesExtendedResponseHandle.o
LOAD c:/NXP/bstudio_nxp/workspace/JN-AN-1171-ZigBee-LightLink-Demo/Light_ExtendedColorLight/Build/zcl_discoverAttributesRequestHandle.o
LOAD c:/NXP/bstudio_nxp/workspace/JN-AN-1171-ZigBee-LightLink-Demo/Light_ExtendedColorLight/Build/zcl_discoverAttributesRequestSend.o
LOAD c:/NXP/bstudio_nxp/workspace/JN-AN-1171-ZigBee-LightLink-Demo/Light_ExtendedColorLight/Build/zcl_discoverAttributesResponseHandle.o
LOAD c:/NXP/bstudio_nxp/workspace/JN-AN-1171-ZigBee-LightLink-Demo/Light_ExtendedColorLight/Build/zcl_discoverCommandsRequestHandle.o
LOAD c:/NXP/bstudio_nxp/workspace/JN-AN-1171-ZigBee-LightLink-Demo/Light_ExtendedColorLight/Build/zcl_discoverCommandsRequestSend.o
LOAD c:/NXP/bstudio_nxp/workspace/JN-AN-1171-ZigBee-LightLink-Demo/Light_ExtendedColorLight/Build/zcl_discoverCommandsResponseHandle.o
LOAD c:/NXP/bstudio_nxp/workspace/JN-AN-1171-ZigBee-LightLink-Demo/Light_ExtendedColorLight/Build/zcl_event.o
LOAD c:/NXP/bstudio_nxp/workspace/JN-AN-1171-ZigBee-LightLink-Demo/Light_ExtendedColorLight/Build/zcl_heap.o
LOAD c:/NXP/bstudio_nxp/workspace/JN-AN-1171-ZigBee-LightLink-Demo/Light_ExtendedColorLight/Build/zcl_library_options.o
LOAD c:/NXP/bstudio_nxp/workspace/JN-AN-1171-ZigBee-LightLink-Demo/Light_ExtendedColorLight/Build/zcl_readAttributesRequestHandle.o
LOAD c:/NXP/bstudio_nxp/workspace/JN-AN-1171-ZigBee-LightLink-Demo/Light_ExtendedColorLight/Build/zcl_readAttributesRequestSend.o
LOAD c:/NXP/bstudio_nxp/workspace/JN-AN-1171-ZigBee-LightLink-Demo/Light_ExtendedColorLight/Build/zcl_readAttributesResponseHandle.o
LOAD c:/NXP/bstudio_nxp/workspace/JN-AN-1171-ZigBee-LightLink-Demo/Light_ExtendedColorLight/Build/zcl_readReportingConfigurationCommandHandle.o
LOAD c:/NXP/bstudio_nxp/workspace/JN-AN-1171-ZigBee-LightLink-Demo/Light_ExtendedColorLight/Build/zcl_readReportingConfigurationCommandSend.o
LOAD c:/NXP/bstudio_nxp/workspace/JN-AN-1171-ZigBee-LightLink-Demo/Light_ExtendedColorLight/Build/zcl_readReportingConfigurationResponseHandle.o
LOAD c:/NXP/bstudio_nxp/workspace/JN-AN-1171-ZigBee-LightLink-Demo/Light_ExtendedColorLight/Build/zcl_reportManager.o
LOAD c:/NXP/bstudio_nxp/workspace/JN-AN-1171-ZigBee-LightLink-Demo/Light_ExtendedColorLight/Build/zcl_reportMaths.o
LOAD c:/NXP/bstudio_nxp/workspace/JN-AN-1171-ZigBee-LightLink-Demo/Light_ExtendedColorLight/Build/zcl_reportScheduler.o
LOAD c:/NXP/bstudio_nxp/workspace/JN-AN-1171-ZigBee-LightLink-Demo/Light_ExtendedColorLight/Build/zcl_reportStringHandling.o
LOAD c:/NXP/bstudio_nxp/workspace/JN-AN-1171-ZigBee-LightLink-Demo/Light_ExtendedColorLight/Build/zcl_reportStructure.o
LOAD c:/NXP/bstudio_nxp/workspace/JN-AN-1171-ZigBee-LightLink-Demo/Light_ExtendedColorLight/Build/zcl_search.o
LOAD c:/NXP/bstudio_nxp/workspace/JN-AN-1171-ZigBee-LightLink-Demo/Light_ExtendedColorLight/Build/zcl_timer.o
LOAD c:/NXP/bstudio_nxp/workspace/JN-AN-1171-ZigBee-LightLink-Demo/Light_ExtendedColorLight/Build/zcl_transmit.o
LOAD c:/NXP/bstudio_nxp/workspace/JN-AN-1171-ZigBee-LightLink-Demo/Light_ExtendedColorLight/Build/OTA.o
LOAD c:/NXP/bstudio_nxp/workspace/JN-AN-1171-ZigBee-LightLink-Demo/Light_ExtendedColorLight/Build/OTA_ClientUpgradeManager.o
LOAD c:/NXP/bstudio_nxp/workspace/JN-AN-1171-ZigBee-LightLink-Demo/Light_ExtendedColorLight/Build/OTA_CustomCommandHandler.o
LOAD c:/NXP/bstudio_nxp/workspace/JN-AN-1171-ZigBee-LightLink-Demo/Light_ExtendedColorLight/Build/OTA_CustomReceiveCommands.o
LOAD c:/NXP/bstudio_nxp/workspace/JN-AN-1171-ZigBee-LightLink-Demo/Light_ExtendedColorLight/Build/OTA_ServerUpgradeManager.o
LOAD c:/NXP/bstudio_nxp/workspace/JN-AN-1171-ZigBee-LightLink-Demo/Light_ExtendedColorLight/Build/OTA_client.o
LOAD c:/NXP/bstudio_nxp/workspace/JN-AN-1171-ZigBee-LightLink-Demo/Light_ExtendedColorLight/Build/OTA_common.o
LOAD c:/NXP/bstudio_nxp/workspace/JN-AN-1171-ZigBee-LightLink-Demo/Light_ExtendedColorLight/Build/OTA_server.o
LOAD c:/NXP/bstudio_nxp/sdk/JN-SW-4168/Components/Library\libZPSMAC_Mini_JN516x.a
LOAD c:/NXP/bstudio_nxp/sdk/JN-SW-4168/Components/Library\libOS_JN516x.a
LOAD c:/NXP/bstudio_nxp/sdk/JN-SW-4168/Components/Library\libPWRM_JN516x.a
LOAD c:/NXP/bstudio_nxp/sdk/JN-SW-4168/Components/Library\libZPSTSV_JN516x.a
LOAD c:/NXP/bstudio_nxp/sdk/JN-SW-4168/Components/Library\libAES_SW_JN516x.a
LOAD c:/NXP/bstudio_nxp/sdk/JN-SW-4168/Components/Library\libPDUM_JN516x.a
LOAD c:/NXP/bstudio_nxp/sdk/JN-SW-4168/Components/Library\libZPSAPL_JN516x.a
LOAD c:/NXP/bstudio_nxp/sdk/JN-SW-4168/Components/Library\libRandom_JN516x.a
LOAD c:/NXP/bstudio_nxp/sdk/JN-SW-4168/Components/Library\libPDM_EEPROM_JN516x.a
LOAD c:/NXP/bstudio_nxp/sdk/JN-SW-4168/Components/Library\libDBG_JN516x.a
LOAD c:/NXP/bstudio_nxp/sdk/JN-SW-4168/Components/Library\libZPSZLL_JN516x.a
LOAD c:/NXP/bstudio_nxp/sdk/JN-SW-4168/Components/Library\libZPSNWK_JN516x.a
LOAD c:/NXP/bstudio_nxp/sdk/JN-SW-4168/Components/Library\libRecal_JN516x.a
LOAD c:/NXP/bstudio_nxp/sdk/JN-SW-4168/Components/Library\libMiniMac_JN5169.a
LOAD c:/NXP/bstudio_nxp/sdk/JN-SW-4168/Components/Library\libMiniMacShim_JN516x.a
LOAD c:/NXP/bstudio_nxp/sdk/JN-SW-4168/Components/Library\libMMAC_JN5169.a
LOAD c:/NXP/bstudio_nxp/sdk/JN-SW-4168/Components/Library\libJPT_JN5169.a
LOAD c:/NXP/bstudio_nxp/sdk/JN-SW-4168/Components/Library\libAes_JN516x.a
LOAD c:/NXP/bstudio_nxp/sdk/JN-SW-4168/Components/Library\libHardwareApi_JN5169.a
LOAD c:/NXP/bstudio_nxp/sdk/JN-SW-4168/Components/Library\libMicroSpecific_JN516x.a
LOAD c:/NXP/bstudio_nxp/sdk/JN-SW-4168/Components/Library\libBoot_JN516x.a
LOAD c:/NXP/bstudio_nxp/sdk/JN-SW-4168/Platform/DK4/Library\libBoardLib_JN516x.a
LOAD c:/nxp/bstudio_nxp/sdk/tools/ba-elf-ba2-r36379/bin/../lib/gcc/ba-elf/4.7.4/../../../../ba-elf/lib/mcpu_jn51xx_sizeopt\libm.a
END GROUP
LOAD c:/nxp/bstudio_nxp/sdk/tools/ba-elf-ba2-r36379/bin/../lib/gcc/ba-elf/4.7.4/../../../../ba-elf/lib/mcpu_jn51xx_sizeopt\libc.a
LOAD c:/nxp/bstudio_nxp/sdk/tools/ba-elf-ba2-r36379/bin/../lib/gcc/ba-elf/4.7.4/mcpu_jn51xx_sizeopt\libgcc.a
LOAD c:/nxp/bstudio_nxp/sdk/tools/ba-elf-ba2-r36379/bin/../lib/gcc/ba-elf/4.7.4/../../../../ba-elf/lib/mcpu_jn51xx_sizeopt\libc.a
                0x0000000000080038                exception_vsr_table = 0x80038
                0x0000000004000000                pSPIflashFncTable = 0x4000000
                0x0000000000000044                restore_state = 0x44
                0x000000000000004a                bZSPIWaitWIPClear = 0x4a
                0x0000000000000050                u16ZSPIflashRDID = 0x50
                0x0000000000000056                u8SelectFlashChipType = 0x56
                0x000000000000005c                memcpy = 0x5c
                0x0000000000000066                vBootFlashProg = 0x66
                [0x00000000000007d0]                __minimum_heap_size = DEFINED (__minimum_heap_size)?__minimum_heap_size:0xd16
                [0x0000000000001770]                __stack_size = DEFINED (__stack_size)?__stack_size:0x800
                0x0000000000000000                _SwConfig = (DEFINED (g_bSWConf_Debug) | (DEFINED (g_bSWConf_AltDebugPort) << 0x1))

.version        0x000000000007fffc        0x4
                0x000000000007fffc        0x4 LONG 0xf03000b

.bir            0x0000000000080000       0x10
                0x0000000000080000                _flash_start = ABSOLUTE (.)
                0x0000000000080000                _flash_beg = ABSOLUTE (.)
                0x0000000000080000        0x4 LONG 0x12345678
                0x0000000000080004        0x4 LONG 0x11223344
                0x0000000000080008        0x4 LONG 0x55667788
                0x000000000008000c        0x1 BYTE 0x8
                0x000000000008000d        0x1 BYTE 0x1
                0x000000000008000e        0x2 SHORT 0x0

.flashheader    0x0000000000080010       0x28
                0x0000000000080010        0x4 LONG 0x0
                0x0000000000080014        0x4 LONG 0x0
                0x0000000000080018        0x4 LONG 0x0
                0x000000000008001c        0x2 SHORT 0x0
                0x000000000008001e        0x2 SHORT 0x0 ABSOLUTE (_SwConfig)
                0x0000000000080020                _enc_start = ABSOLUTE (.)
                0x0000000000080020        0x4 LONG 0x2b9d4 ABSOLUTE (_image_len)
                0x0000000000080024        0x4 LONG 0xaaff8 ABSOLUTE (_flash_data_start)
                0x0000000000080028        0x2 SHORT 0x13 ((ABSOLUTE (_ram_data_start) / 0x4) & 0xffff)
                0x000000000008002a        0x2 SHORT 0x277 ((ABSOLUTE (_ram_data_len) / 0x4) & 0xffff)
                0x000000000008002c        0x2 SHORT 0x28a ((ABSOLUTE (_bss_start) / 0x4) & 0xffff)
                0x000000000008002e        0x2 SHORT 0x10b6 ((ABSOLUTE (_bss_len) / 0x4) & 0xffff)
                0x0000000000080030        0x4 LONG 0xa705c ABSOLUTE (AppWarmStart)
                0x0000000000080034        0x4 LONG 0xa7078 ABSOLUTE (AppColdStart)
                0x0000000000000000                _enc_offset = (_enc_start & 0xf)

.ro_mac_address
                0x0000000000080040       0x10
                0x0000000000080040                _FlsMACAddress = ABSOLUTE (.)
 *(.ro_mac_address)
 .ro_mac_address
                0x0000000000080040        0x8 C:\Users\Gillis\AppData\Local\Temp\ccnqav2l.ltrans0.ltrans.o
                0x0000000000080050                . = ALIGN (0x10)
 *fill*         0x0000000000080048        0x8 00

.ro_ota_header  0x0000000000080050       0x50
                0x0000000000080050                _FlsOtaHeader = ABSOLUTE (.)
 *(.ro_ota_header)
 .ro_ota_header
                0x0000000000080050       0x45 C:\Users\Gillis\AppData\Local\Temp\ccnqav2l.ltrans25.ltrans.o
                0x0000000000080050                au8OtaHeader
                0x00000000000800a0                . = ALIGN (0x10)
 *fill*         0x0000000000080095        0xb 00

.ro_se_lnkKey   0x00000000000800a0       0x10
                0x00000000000800a0                _FlsLinkKey = ABSOLUTE (.)
 *(.ro_se_lnkKey)
 .ro_se_lnkKey  0x00000000000800a0       0x10 C:\Users\Gillis\AppData\Local\Temp\ccnqav2l.ltrans25.ltrans.o
                0x00000000000800a0                s_au8LnkKeyArray
                0x00000000000800b0                . = ALIGN (0x10)

.rodata         0x00000000000800b0      0xf60
 *(.rodata*)
 .rodata.str1.1
                0x00000000000800b0       0x1c C:\Users\Gillis\AppData\Local\Temp\ccnqav2l.ltrans0.ltrans.o
 .rodata        0x00000000000800cc      0x18c C:\Users\Gillis\AppData\Local\Temp\ccnqav2l.ltrans0.ltrans.o
                0x00000000000800cc                gMAC_u8MaxBuffers
                0x00000000000800d0                g_u32ApsFcSaveCountBitShift
                0x00000000000800d4                u8MaxZpsConfigEp
                0x00000000000800d5                au8EpMapPresent
                0x00000000000800d8                s_groupPdmTable
 .rodata.str1.1
                0x0000000000000000       0x1c C:\Users\Gillis\AppData\Local\Temp\ccnqav2l.ltrans1.ltrans.o
                                          0x8 (size before relaxing)
 .rodata        0x0000000000080258       0x38 C:\Users\Gillis\AppData\Local\Temp\ccnqav2l.ltrans1.ltrans.o
 .rodata        0x0000000000080290       0x8c C:\Users\Gillis\AppData\Local\Temp\ccnqav2l.ltrans3.ltrans.o
                0x0000000000080298                au32UartAddrOffset
 .rodata        0x000000000008031c        0x8 C:\Users\Gillis\AppData\Local\Temp\ccnqav2l.ltrans4.ltrans.o
 .rodata.str1.1
                0x0000000000080324        0x3 C:\Users\Gillis\AppData\Local\Temp\ccnqav2l.ltrans4.ltrans.o
 .rodata        0x0000000000080327       0x1c C:\Users\Gillis\AppData\Local\Temp\ccnqav2l.ltrans5.ltrans.o
 .rodata.str1.1
                0x0000000000080343       0xb7 C:\Users\Gillis\AppData\Local\Temp\ccnqav2l.ltrans5.ltrans.o
 .rodata.str1.1
                0x00000000000803fa        0x6 C:\Users\Gillis\AppData\Local\Temp\ccnqav2l.ltrans6.ltrans.o
                                         0x15 (size before relaxing)
 .rodata        0x0000000000080400       0x1c C:\Users\Gillis\AppData\Local\Temp\ccnqav2l.ltrans6.ltrans.o
                0x0000000000080400                zps_pacNwkFrmStdHdrFmt
                0x0000000000080404                au32NwkPdmRecordOffsets
 .rodata.str1.1
                0x0000000000000000        0x3 C:\Users\Gillis\AppData\Local\Temp\ccnqav2l.ltrans8.ltrans.o
 .rodata.str1.1
                0x000000000008041c        0x6 C:\Users\Gillis\AppData\Local\Temp\ccnqav2l.ltrans9.ltrans.o
 .rodata.str1.1
                0x0000000000080422        0xf C:\Users\Gillis\AppData\Local\Temp\ccnqav2l.ltrans10.ltrans.o
                                         0x16 (size before relaxing)
 .rodata.str1.1
                0x0000000000080431        0x5 C:\Users\Gillis\AppData\Local\Temp\ccnqav2l.ltrans11.ltrans.o
                                         0x13 (size before relaxing)
 *fill*         0x0000000000080436        0x2 00
 .rodata        0x0000000000080438      0x1c4 C:\Users\Gillis\AppData\Local\Temp\ccnqav2l.ltrans11.ltrans.o
                0x0000000000080438                zps_pacNwkFrmStdByteFmt
                0x000000000008043c                zps_pacNwkFrmStdLongFmt
                0x0000000000080440                zps_pacNwkFrmStdHalfFmt
 .rodata.str1.1
                0x0000000000000000        0x5 C:\Users\Gillis\AppData\Local\Temp\ccnqav2l.ltrans12.ltrans.o
                                          0x7 (size before relaxing)
 .rodata.str1.1
                0x0000000000000000        0x5 C:\Users\Gillis\AppData\Local\Temp\ccnqav2l.ltrans13.ltrans.o
                                          0xf (size before relaxing)
 .rodata        0x00000000000805fc        0x7 C:\Users\Gillis\AppData\Local\Temp\ccnqav2l.ltrans13.ltrans.o
                0x00000000000805fc                u8MacNwkTriesTimeout
 .rodata.str1.1
                0x0000000000080603       0x1e C:\Users\Gillis\AppData\Local\Temp\ccnqav2l.ltrans14.ltrans.o
                                         0x25 (size before relaxing)
 *fill*         0x0000000000080621        0x3 00
 .rodata        0x0000000000080624       0x44 C:\Users\Gillis\AppData\Local\Temp\ccnqav2l.ltrans15.ltrans.o
                0x000000000008062c                s_aprIdleStHandleCme.146463
                0x0000000000080640                s_aprActvStHandleCme.142596
                0x0000000000080664                bDisableSourceRouting
                0x0000000000080665                bRxOnOptimisationTurnedOff
 .rodata.str1.1
                0x0000000000000000       0x1e C:\Users\Gillis\AppData\Local\Temp\ccnqav2l.ltrans15.ltrans.o
                                          0x4 (size before relaxing)
 .rodata.str1.1
                0x0000000000080668       0x10 C:\Users\Gillis\AppData\Local\Temp\ccnqav2l.ltrans16.ltrans.o
                                         0x29 (size before relaxing)
 .rodata        0x0000000000080678        0x4 C:\Users\Gillis\AppData\Local\Temp\ccnqav2l.ltrans16.ltrans.o
 .rodata.str1.1
                0x0000000000000000       0x10 C:\Users\Gillis\AppData\Local\Temp\ccnqav2l.ltrans17.ltrans.o
                                          0x6 (size before relaxing)
 .rodata.str1.1
                0x000000000008067c        0x5 C:\Users\Gillis\AppData\Local\Temp\ccnqav2l.ltrans18.ltrans.o
                                          0xa (size before relaxing)
 .rodata.str1.1
                0x0000000000000000        0x5 C:\Users\Gillis\AppData\Local\Temp\ccnqav2l.ltrans20.ltrans.o
                                          0x6 (size before relaxing)
 *fill*         0x0000000000080681        0x3 00
 .rodata        0x0000000000080684       0x4c C:\Users\Gillis\AppData\Local\Temp\ccnqav2l.ltrans20.ltrans.o
                0x0000000000080684                g_u32NwkFcSaveCountBitShift
 .rodata.str1.1
                0x00000000000806d0        0xa C:\Users\Gillis\AppData\Local\Temp\ccnqav2l.ltrans22.ltrans.o
                                         0x26 (size before relaxing)
 .rodata.str1.1
                0x0000000000000000        0x4 C:\Users\Gillis\AppData\Local\Temp\ccnqav2l.ltrans23.ltrans.o
 *fill*         0x00000000000806da        0x2 00
 .rodata        0x00000000000806dc      0x318 C:\Users\Gillis\AppData\Local\Temp\ccnqav2l.ltrans24.ltrans.o
                0x00000000000808dc                gu32ZCLVersion
                0x00000000000808e0                OS_g_u32Version
                0x00000000000808e4                PDUM_g_u32Version
                0x00000000000808e8                ZPS_g_u32MacVersion
                0x00000000000808ec                ZPS_g_u32TsvVersion
 .rodata.str1.1
                0x00000000000809f4       0x54 C:\Users\Gillis\AppData\Local\Temp\ccnqav2l.ltrans25.ltrans.o
 .rodata        0x0000000000080a48       0x10 C:\Users\Gillis\AppData\Local\Temp\ccnqav2l.ltrans25.ltrans.o
 .rodata.str1.1
                0x0000000000080a58       0x20 C:\Users\Gillis\AppData\Local\Temp\ccnqav2l.ltrans26.ltrans.o
                                         0x30 (size before relaxing)
 .rodata        0x0000000000080a78      0x107 C:\Users\Gillis\AppData\Local\Temp\ccnqav2l.ltrans26.ltrans.o
                0x0000000000080a78                au8ZLLChannelSet
 .rodata.str1.1
                0x0000000000000000       0x20 C:\Users\Gillis\AppData\Local\Temp\ccnqav2l.ltrans27.ltrans.o
                                          0x4 (size before relaxing)
 .rodata        0x0000000000080b7f       0x11 C:\Users\Gillis\AppData\Local\Temp\ccnqav2l.ltrans27.ltrans.o
                0x0000000000080b7f                g_bReverToOldParent
 .rodata.str1.1
                0x0000000000080b90       0x1a C:\Users\Gillis\AppData\Local\Temp\ccnqav2l.ltrans28.ltrans.o
                                         0x36 (size before relaxing)
 .rodata.str1.1
                0x0000000000080baa       0x8e C:\Users\Gillis\AppData\Local\Temp\ccnqav2l.ltrans31.ltrans.o
 .rodata        0x0000000000080c38      0x3d8 C:\Users\Gillis\AppData\Local\Temp\ccnqav2l.ltrans31.ltrans.o
                0x0000000000080c38                zps_g_pvApl
                0x0000000000080c3c                pwrm_psWakeupCallbacks

.text           0x0000000000081010    0x29fe8
 *(.text*)
 .text          0x0000000000081010     0x2124 C:\Users\Gillis\AppData\Local\Temp\ccnqav2l.ltrans0.ltrans.o
                0x0000000000081010                vInitialiseApp.3308
                0x0000000000081010                APP_TIMER_Version_1v0
 .text          0x0000000000083134     0x1aac C:\Users\Gillis\AppData\Local\Temp\ccnqav2l.ltrans1.ltrans.o
                0x0000000000083149                DBG_iUartGetChar
                0x00000000000831fd                vMMAC_IntHandlerBbc
                0x0000000000083217                eBasicTxCompleteHandler
                0x000000000008321c                vTxRxTimeout.153408
                0x0000000000083279                eSmeAcScBeaconInd.144559
                0x00000000000832df                eSmeASFlBeaconInd.144394
                0x0000000000083301                eSmeUDNTScanDcfm.143844
                0x0000000000083389                zps_eNwkHandleSmePollDcfm
                0x00000000000833b3                eSmeGenlScanDcfm.144386
                0x0000000000083411                eLeaveDataDcfmRemoteLeave.149144
                0x000000000008345a                eSmeEdScScanDcfm.144382
                0x0000000000083601                eSmeAcScBeaconInd.144402
                0x0000000000083709                eSmeUDNTBeaconInd.144378
                0x000000000008372c                eZCL_SetLocalAttributeValue.constprop.159
                0x00000000000837e8                bAHI_FlashInit.constprop.156
                0x0000000000083960                vOtaFlashInitHw
                0x0000000000083962                eZCL_TimerRegister.part.1.63787.constprop.153
                0x00000000000839b8                pvZCL_HeapAlloc.part.0.56158.constprop.135
                0x00000000000839f2                vMicroIntEnableOnly.constprop.126
                0x0000000000083a1e                vACI_OptimisedCcmStar.constprop.71
                0x0000000000083c0a                zps_eNwkRtDiscMatch.constprop.68
                0x0000000000083c5d                vAHI_SpiReadConfiguration.constprop.54
                0x0000000000083c8e                vConfigureSpi
                0x0000000000083cce                vAHI_SpiRestoreConfiguration.constprop.51
                0x0000000000083d0f                bAHI_FullFlashRead
                0x0000000000083d52                vOtaFlashRead
                0x0000000000083d54                eCLD_ColourControl_xyY2HSV.constprop.42
                0x0000000000083f1a                vCLD_ColourControl_xyY2CCT.constprop.41
                0x0000000000083fcb                vMiniMac_ReturnTxBufferCallback
                0x0000000000083fdd                bEnableReceive.153410
                0x000000000008401b                pvHeap_Alloc
                0x000000000008401e                vMicroIntRestoreState
                0x000000000008402a                TSV_eStart
                0x000000000008407a                bAHI_WriteEEPROMfixSegmentData
                0x00000000000840d8                bAHI_InitialiseEEPROM
                0x0000000000084120                vAHI_ReadDataFromEEPROMregister
                0x000000000008414d                vAHI_WriteDataIntoEEPROMregister
                0x000000000008417d                iPDM_WriteSegmentHeaderDataIntoEEPROMsegment
                0x00000000000841ac                u32RaiseDigitalVoltage
                0x00000000000841cc                u8AHI_WakeTimerFiredStatus
                0x00000000000841e0                vAHI_WakeTimerStop.part.3.155821
                0x0000000000084200                vAHI_UartReset.part.4.155575
                0x0000000000084238                vAHI_ClockXtalPull
                0x0000000000084255                vAHI_OptimiseWaitStates
                0x00000000000842a1                bAHI_GetClkSource
                0x00000000000842ae                bAHI_SetClockRate.part.0.155245.constprop.99
                0x0000000000084329                vAHI_SwReset
                0x000000000008435a                vAHI_DioSetDirection
                0x000000000008436e                bAHI_APRegulatorEnabled
                0x000000000008437b                bIssueACIcommand
                0x0000000000084411                bACI_ECBencodeStripe.constprop.64
                0x0000000000084619                vTransformKey.isra.0.77264
                0x0000000000084649                vOTA_EncodeString
                0x000000000008467e                psSearchForFrameToSend
                0x00000000000846d6                eMiniMac_FrameInProgress
                0x0000000000084701                vRemoveFromTxQueue
                0x000000000008473d                vAddToTxQueue
                0x0000000000084773                u8GetHeaderSize
                0x000000000008479b                vMiniMac_PLME_SetReq_CcaMode
                0x00000000000847af                vMiniMac_MLME_SetReq_MaxCsmaBackoffs
                0x00000000000847cf                vMiniMac_MLME_SetReq_MaxBe
                0x00000000000847f2                vMiniMac_MLME_SetReq_MinBe
                0x0000000000084815                zps_psFormatCmdFrameGeneral
                0x00000000000848a2                zps_eNwkFormStInit
                0x00000000000848b7                vSendDcfm.145080
                0x00000000000848dd                bCheckMatchingEntry.144554
                0x0000000000084903                zps_psNwkSlistRemoveFromHead
                0x000000000008491a                zps_psNwkSlistRemove
                0x0000000000084952                zps_bNwkMcpsMgrRemoveDescrFromLists
                0x0000000000084990                zps_vNwkSlistAddToTail
                0x00000000000849aa                zps_vNwkSecClearMatSet
                0x00000000000849d5                ZPS_vNwkSecResetDevice
                0x0000000000084a1a                ZPS_bNwkSecHaveNetworkKey
                0x0000000000084a4e                ZPS_bNwkSecFindMatSet
                0x0000000000084a8a                zps_eNwkRtMatch
                0x0000000000084ba4                ZPS_u8NwkCalcNldeReqOverhead
 .text.unlikely
                0x0000000000084be0       0x43 C:\Users\Gillis\AppData\Local\Temp\ccnqav2l.ltrans1.ltrans.o
                0x0000000000084be0                vAHI_MemoryHold.155253
 .text          0x0000000000084c23     0x14a8 C:\Users\Gillis\AppData\Local\Temp\ccnqav2l.ltrans2.ltrans.o
                0x0000000000084c23                os_u32APP_cbGetTickTimer
                0x0000000000084c2c                os_bAPP_cbSetTickTimerCompare
                0x0000000000084c88                vZdoServersInit.3039
                0x0000000000084db2                boIdValueSearchMatch.129077
                0x0000000000084e0c                vDispatch.68429
                0x0000000000084ede                OS_eStopSWTimer
                0x0000000000085001                OS_ePostMessage
                0x0000000000085167                os_vAPP_CommissionTimerTask
                0x000000000008517d                OS_eExitCriticalSection
                0x0000000000085262                OS_eActivateTask
                0x00000000000852fd                vPostMlmeDcfmInd.87829
                0x00000000000853a0                u16ZCL_APduInstanceWriteNBO
                0x00000000000853f4                u16ZCL_WriteCommandHeader
                0x000000000008546c                u16ZCL_APduInstanceWriteStringNBO
                0x0000000000085533                u16ZCL_APduInstanceReadStringNBO
                0x0000000000085608                eZCL_GetAttributeTypeSizeFromBuffer
                0x000000000008567f                iPDM_ReadSegmentHeaderDataFromEEPROMsegment
                0x00000000000856d8                iPDM_ReadUserDataFromEEPROMsegment
                0x0000000000085752                iPDM_ReCalculateWearCountAndChecksumAndWriteFileSystemHeader
                0x000000000008579c                vPDM_SetEEPROMandFileSystemValidState
                0x00000000000857c3                iPDM_ReadUserDataFromFileSystemRecord
                0x00000000000857e3                vPDM_WriteFileSystemRecordAndSegmentDataIntoEEPROMsegment
                0x000000000008581e                u16ZCL_ReadTypeNBO
                0x00000000000858d3                u16ZCL_APduInstanceReadNBO
                0x0000000000085924                u16ZCL_ReadCommandHeader.part.0.48797
                0x000000000008599b                eCLD_BasicCommandHandler
                0x00000000000859c7                PWRM_vWakeInterruptCallback
                0x0000000000085a4e                eCLD_ScenesFindActiveScene
                0x0000000000085a83                iPDM_FilterDuplicateAppendedSegmentsOnList.130249
                0x0000000000085ac7                ZPS_bIsMacAddressUsedInApsTable
                0x0000000000085b7d                eCLD_GroupsCheckGroupExists
                0x0000000000085bea                ZPS_vGetDeviceCurrentData.constprop.13
                0x0000000000085c69                ZPS_eTsvOpen
                0x0000000000085c86                zps_vNwkBttMgrInit
                0x0000000000085cb4                ZPS_vNwkNibClearTables
                0x0000000000085dd9                PDUM_vInit
                0x0000000000085e94                vAHI_ApConfigure.part.0.155016.constprop.175
                0x0000000000085eca                vMiniMac_MLME_SetReq_PanId
                0x0000000000085f07                vMiniMac_MLME_SetReq_ShortAddr
                0x0000000000085f15                psDLISTsearchFromHead
                0x0000000000085f3e                eCLD_ScenesAddScene
                0x0000000000086021                eCLD_ScenesFindScene
                0x000000000008607d                iAHI_WriteDataIntoEEPROMsegment.constprop.166
 .text          0x00000000000860cb     0x156f C:\Users\Gillis\AppData\Local\Temp\ccnqav2l.ltrans3.ltrans.o
                0x0000000000086105                DBG_vUartFlush
                0x0000000000086132                DBG_vUartPutch
                0x0000000000086178                DBG_vUartInitHardware
                0x00000000000862b5                bPCA9634_WriteRegister
                0x0000000000086333                MAC_u64GetExtAddr
                0x000000000008634e                ZPS_u64NwkNibFindExtAddr
                0x00000000000863f4                eCLD_ScenesSetLastConfiguredBy.isra.2.25257
                0x000000000008642b                ZPS_u16NwkNibFindNwkAddr
                0x00000000000864cc                iPDM_SearchForBufferIdInList
                0x0000000000086501                iPDM_SearchForBufferIdInFileSystem
                0x0000000000086514                iPDM_ReadUserDataFromSegmentWithId
                0x0000000000086549                iPDM_SearchForSpecificSegmentInList
                0x000000000008657b                psGetTxFrameBuffer
                0x00000000000865ba                psGetAndBuildCoordRealignment
                0x0000000000086612                vMMAC_RadioToOffAndWait
                0x000000000008662f                vStartReceive
                0x000000000008692e                vMiniMac_NextTransaction
                0x0000000000086998                MAC_vPibSetRxOnWhenIdle.constprop.117
                0x00000000000869a0                eTransmit
                0x0000000000086a6e                eBuildAndSend.153061
                0x0000000000086b20                vMiniMac_TxComplete
                0x0000000000086c11                vTimerFired
                0x0000000000086ce0                vMiniMac_Init
                0x00000000000870a4                vMiniMac_PLME_SetReq_Power
                0x00000000000870b9                vMiniMac_PLME_SetReq_Channel
                0x00000000000870c2                eCLD_ScenesSaveClusters.constprop.43
                0x0000000000087351                OS_eStartSWTimer.constprop.177
                0x0000000000087470                os_vAPP_RadioRecal
                0x0000000000087512                os_vAPP_DiscoveryTimerTask
                0x0000000000087559                OS_eContinueSWTimer.constprop.39
 *fill*         0x000000000008763a        0x2 00
 .text          0x000000000008763c     0x151c C:\Users\Gillis\AppData\Local\Temp\ccnqav2l.ltrans4.ltrans.o
                0x000000000008763c                os_vAPP_cbDisableTickTimer
                0x0000000000087680                os_vAPP_cbEnableTickTimer
                0x0000000000087700                vRetryCcaFailure
                0x000000000008774c                os_vAPP_ButtonsScanTask
                0x00000000000877f2                eOrphanNotificationSent.153051
                0x000000000008783b                eZCL_SearchForClusterEntry
                0x00000000000878d9                eZCL_FindCluster.constprop.168
                0x0000000000087926                eCLD_ScenesRemoveAllScenes
                0x00000000000879d7                eCLD_ScenesUpdate
                0x0000000000087ca0                eCLD_OnOffGetState
                0x0000000000087ccf                eCLD_LevelControlClusterIsPresent
                0x0000000000087ce6                eCLD_GroupsSetIdentifying
                0x0000000000087d09                vCLD_IdentifyTimerClickCallback.18311
                0x0000000000087d86                eCLD_OnOffSetGlobalSceneControl.constprop.28
                0x0000000000087dba                eCLD_ColourControl_HSV2xyY.constprop.40
                0x00000000000880cc                eCLD_ColourControl_GetRGB.constprop.73
                0x000000000008819f                vStartEffect
                0x00000000000882e3                eOtaFindCluster.constprop.160
                0x000000000008831c                vOtaTimerClickCallback
                0x000000000008836d                eOTA_RestoreClientData.part.1.65216
                0x00000000000883c4                vOtaClientUpgMgrMapStates
                0x000000000008843f                eOtaClientReqSeqNoUpdate
                0x000000000008845c                eOTA_SetServerAddress.constprop.75
                0x0000000000088499                eZCL_CustomCommandReceiveScenes.isra.0.part.1.25241.constprop.24
                0x000000000008858d                vCLD_ScenesUpdateSceneValid
                0x0000000000088609                eCLD_OnOffSetState
                0x000000000008867a                eCLD_OnOffSceneEventHandler.21375
                0x00000000000886b1                eZCL_BuildTransmitAddressStructure
                0x000000000008871e                eCLD_ScenesCountScenes
                0x0000000000088738                ZPS_bSecDecrypt
                0x000000000008884a                boPDM_IsBitmapSaturated.129969
                0x0000000000088893                APP_bButtonInitialise
                0x00000000000888d9                eCLD_ScenesStoreScene
                0x00000000000889b1                bRGB_LED_SetLevel
                0x00000000000889fe                vLI_UpdateDriver
                0x0000000000088a50                bRGB_LED_Off
                0x0000000000088a85                vRGBLight_SetLevels
                0x0000000000088b0e                APP_vHandleIdentify
 .text          0x0000000000088b58     0x1424 C:\Users\Gillis\AppData\Local\Temp\ccnqav2l.ltrans5.ltrans.o
                0x0000000000088c44                vOtaUpgManClientStateCountDown.66081
                0x0000000000088d79                vOtaFlashWrite
                0x0000000000088d7b                vOtaFlashErase
                0x0000000000088dd0                ZPS_bSecEncrypt
                0x0000000000088f86                eHandleRemoveBroadcastEndpointsFromGroup.75729
                0x0000000000088fe0                eZCL_SetReceiveEventAddressStructure
                0x000000000008905f                dbg_vPrintfImplNoneVerbose
                0x00000000000894e6                vfExtendedStatusCallBack
                0x00000000000894f1                vUnclaimedInterrupt.3310
                0x0000000000089503                vOSError.3312
                0x000000000008954b                DBG_vDumpStack
                0x000000000008958d                eCLD_ColourControlHandleColourModeChange
                0x0000000000089645                eCLD_LevelControlUpdate
                0x00000000000898fa                eCLD_LevelControlStopTransition
                0x0000000000089937                eCLD_LevelControlSetOnOffState
                0x0000000000089a74                eCLD_ColourControlUpdate
                0x0000000000089f37                eCLD_ColourControlSceneEventHandler.41657
 .text          0x0000000000089f7c     0x1375 C:\Users\Gillis\AppData\Local\Temp\ccnqav2l.ltrans6.ltrans.o
                0x0000000000089f7c                vMcpsMgrExpiry.136169
                0x000000000008a170                zps_vNwkHandleCmeRouteDiscoveryReq
                0x000000000008a1f6                vPDM_MoveAllDataFromListToList
                0x000000000008a234                vPDM_MoveAllDataWithBufferIdAndStateFromListToList
                0x000000000008a2bf                vPDM_MoveAllDataToDeAllocList
                0x000000000008a2e7                iPDM_ReconstructReplacedDataTable
                0x000000000008a566                vPDM_ImageBitmapRepair.128992
                0x000000000008a5c7                vPDM_MoveAllDataWithBufferIdFromListToList
                0x000000000008a64c                vPDM_DeleteAppendedSequence
                0x000000000008a6f1                PDM_eSaveRecordData
                0x000000000008ab26                ZPS_vNwkSaveRecord
                0x000000000008ab8e                vPDM_DeleteSegmentsWithIdFromFileSystem
                0x000000000008abaf                ZPS_vNwkResetOutgoingFrameCounter
                0x000000000008abf4                zps_psSendFrm
                0x000000000008af5e                zps_psSendBroadcastFrm
                0x000000000008aff4                ZPS_vNwkHandleNldeReqRsp
                0x000000000008b1f1                zps_eAplApsmeCmdMgrSendCommand
                0x000000000008b2c8                zps_vAplApsmeCmdMgrRetryTimeout.75702
 *fill*         0x000000000008b2f1        0x3 00
 .text          0x000000000008b2f4     0x1618 C:\Users\Gillis\AppData\Local\Temp\ccnqav2l.ltrans7.ltrans.o
                0x000000000008b3e0                vMiniMac_MlmeCallback
                0x000000000008b71f                vSendMlmeCommStatusFromTxFrame
                0x000000000008b775                MAC_vHandleMlmeVsReqRsp.constprop.118
                0x000000000008bfa1                vScanBeaconReceived
                0x000000000008bfe0                vPostDcfm.153072
                0x000000000008c049                vScanNextChannel.153059
                0x000000000008c26b                vRunningRxCallback
                0x000000000008c5d2                iPDM_VerifyDataSequenceWithBufferId
                0x000000000008c674                vSaveScenesNVM
                0x000000000008c717                eCLD_GroupsRemoveAllGroups
                0x000000000008c7d1                vRemoveAllGroupsAndScenes
                0x000000000008c7e3                vManagePowerOnCountInit
                0x000000000008c82c                os_vAPP_vManagePowerOnCount
                0x000000000008c884                vRestetOTADiscovery.8831
                0x000000000008c8ac                vPickChannel.4767
 .text          0x000000000008c90c     0x18d4 C:\Users\Gillis\AppData\Local\Temp\ccnqav2l.ltrans8.ltrans.o
                0x000000000008c90c                vPermitJoinHandleExpiry.139388
                0x000000000008c915                vNwkMcpsTimerCallback
                0x000000000008c92f                zps_eSceGenlIllegal
                0x000000000008c936                zps_eSmeGenlIllegal
                0x000000000008c93d                DBG_vUartFailedAssert
                0x000000000008c941                psGetVsMcpsBuf.87833
                0x000000000008c94a                psGetMlmeBuf.87826
                0x000000000008c953                psGetNlmeBuf.71696
                0x000000000008c95d                psGetNldeBuf.71717
                0x000000000008c967                psGetApsmeBuf.71703
                0x000000000008c970                psGetApsdeBuf.71710
                0x000000000008ca89                os_bDummyMemberCheck.68439
                0x000000000008ca8e                os_vDefaultErrorHook.68435
                0x000000000008ca91                vLoopbackTimerCallback
                0x000000000008cac0                zps_eNwkRctMatchNwkAddr
                0x000000000008cb2a                zps_vRemoveNextHop
                0x000000000008cbdf                zps_vRemoveRoute
                0x000000000008cc76                zps_psNwkRtMatchNwkAddr
                0x000000000008ccec                ZPS_u8NwkNibNtDiscMatch
                0x000000000008cda8                zps_vNwkFreeMcpsHandle
                0x000000000008cdd2                ZPS_u64NwkNibGetMappedIeeeAddr
                0x000000000008cdf4                ZPS_bNwkNibNtActvMatch
                0x000000000008cea3                bCheckNwkAddr
                0x000000000008ceec                ZPS_vSetExtendedStatus
                0x000000000008cefe                zps_psApsApsAllocateDcfmRecord
                0x000000000008cf6c                zps_u8CalcLinkCost
                0x000000000008cfa8                zps_u64NwkLibFromPayload
                0x000000000008cfe7                zps_vNwkLibU64ToPayload
                0x000000000008d014                zps_vInitBeaconPayload
                0x000000000008d090                zps_eNwkDcfmIndPost
                0x000000000008d0b3                zps_psNwkDcfmIndGetBuf
                0x000000000008d0d5                eRouteRequestDataDcfm.140564
                0x000000000008d129                eNldeDataDcfm.138394
                0x000000000008d159                zps_vSendNwkStatusInd
                0x000000000008d189                DBG_vInit
                0x000000000008d1cb                vPDM_ReadBitmapHeader.129934
                0x000000000008d1ea                psSLISTsearch
                0x000000000008d22a                psSLISTremove
                0x000000000008d2a8                vSLISTaddToTail
                0x000000000008d2c7                psSLISTgetNext
                0x000000000008d2eb                u8PDM_CalculateFileSystemCapacity
                0x000000000008d309                u8PDM_CalculateLargestDataRecordStored
                0x000000000008d33a                bPDM_ImageBitmapRepairCheck
                0x000000000008d362                u8PDM_ReadSequenceNumber
                0x000000000008d385                boSegmentNumberDeleteSearchMatch.129504
                0x000000000008d3a0                u8PDM_ReadSegmentDataSize
                0x000000000008d3b4                u32PDM_ReadFileSystemHeaderWearCount
                0x000000000008d3ca                boSearchForWearCountSubstitute.129820
                0x000000000008d3f0                boSearchForWearCountInsertPoint.129073
                0x000000000008d40e                vPDM_WriteFileSystemHeaderWearCount
                0x000000000008d420                RND_u32GetRand256
                0x000000000008d43d                RND_u32GetRand
                0x000000000008d464                u16CalculateFailedTxCount.105868
                0x000000000008d48e                vZdoIeeeAddrServerSendExtendResponse.part.0.91665
                0x000000000008d4ef                vZdoNwkAddrServerSendExtendResponse.part.0.90485
                0x000000000008d550                zps_bAplZdoServerHandleConfirmAcks
                0x000000000008d59a                zps_bPerformLeaveActionDecider
                0x000000000008d59f                vHandleUpdateDeviceIndication.80786
                0x000000000008d5c9                ZPS_vRunningCRC32
                0x000000000008d5f9                zps_vAplApsInitDuplicateTable
                0x000000000008d61c                eHandleRemoveNonBroadcastEndpointsFromGroup.75770
                0x000000000008d694                eHandleAddEntryToGroupTable.75733
                0x000000000008d6f0                zps_vAplApsInitFragTransmitPool
                0x000000000008d711                zps_vAplApsFillAndPostApsAck
                0x000000000008d77b                zps_u8AplApsFreeMsgHandle
                0x000000000008d7e5                zps_vAplApsInitSyncMsgPool
                0x000000000008d81d                zps_vAplApsInitFragReceivePool
                0x000000000008d840                vFillDataIndStruct.71559
                0x000000000008d89e                vFillApduErrorEvent.71552
                0x000000000008d8e1                bCheckProfile.71547
                0x000000000008d928                ZPS_bIsGroupPresent
                0x000000000008d960                pdum_u16ReadNBO
                0x000000000008dac1                PDUM_u16SizeNBO
                0x000000000008db1f                PDUM_u16APduInstanceWriteStrNBO
                0x000000000008dc9e                PDUM_u16APduInstanceReadNBO
                0x000000000008dce9                PDUM_u16APduInstanceWriteNBO
                0x000000000008dd53                PDUM_thAPduInstanceGetApdu
                0x000000000008dd6e                PDUM_eAPduInstanceSetPayloadSize
                0x000000000008dd96                PDUM_eNPduWriteDataFromBuffer
                0x000000000008ddf0                PDUM_eNPduWriteDataToBuffer
                0x000000000008de4e                PDUM_eNPduWriteFromBuffer
                0x000000000008de77                PDUM_eNPduDescend
                0x000000000008de9d                PDUM_eNPduAscend
                0x000000000008dec3                PDUM_eNPduClaimData
                0x000000000008df30                PDUM_eNPduAppendDataNBO
                0x000000000008df8d                PDUM_eNPduClaimHeader
                0x000000000008dfb0                PDUM_eNPduReadHeaderNBO
                0x000000000008e003                PDUM_eNPduPrependHeaderNBO
                0x000000000008e05e                PDUM_eNPduInitDescending
                0x000000000008e079                zps_vInitAPSMECmdHdr
                0x000000000008e0b0                OS_eCollectMessage
                0x000000000008e175                eExpireSWTimer.68448
 .text          0x000000000008e1e0     0x168f C:\Users\Gillis\AppData\Local\Temp\ccnqav2l.ltrans9.ltrans.o
                0x000000000008e229                zps_vAplSaveRecord
                0x000000000008e359                zps_bNwkFindAddIeeeAddr
                0x000000000008e4d7                ZPS_bNwkNibAddrMapAddEntry
                0x000000000008e69e                eCheckAddrConflict.isra.4.135504
                0x000000000008e734                vAplSecRemoveLinkKey.80863
                0x000000000008e7b1                ZPS_vNwkMacEntriesClear
                0x000000000008e85a                ZPS_vNwkSaveAllRecords
                0x000000000008e871                zps_vSaveAllZpsRecords
                0x000000000008e890                ZPS_vNwkNibSetNwkAddr
                0x000000000008e8ae                zps_eNwkHandleSceRejnResponse
                0x000000000008e90b                ZPS_vNwkNibSetExtPanId
                0x000000000008e92f                ZPS_vNwkNibSetKeySeqNum
                0x000000000008e943                ZPS_vNwkNibSetDepth
                0x000000000008e96c                ZPS_vNwkNibSetUpdateId
                0x000000000008e97b                vSendNetworkUpdate.135271
                0x000000000008eaaa                ZPS_vNwkNibSetPanId
                0x000000000008eac8                ZPS_vNwkNibSetCapabilityInfo
                0x000000000008eaf5                ZPS_vNwkNibSetChannel
                0x000000000008eb0d                zps_u8NwkHandleRejoinReq
                0x000000000008ebd6                zps_vProcessLocalAddrConflict
                0x000000000008ec81                ZPS_vNwkSaveNt
                0x000000000008eda8                ZPS_vNtSetUsedStatus
                0x000000000008ee4e                zps_vJoinInitNtParent
                0x000000000008efed                vContinueRejoin.146935
                0x000000000008f094                zps_vBuildSortedActvNTList
                0x000000000008f152                zps_sNwkNibNtCheckJoin
                0x000000000008f400                zps_vNwkHandleCmeDirectJoinReq
                0x000000000008f47f                zps_vCheckActvNtForDuplicate
                0x000000000008f51c                vFinish.148147
                0x000000000008f572                eSmeOrphScanDcfm.148160
                0x000000000008f5ea                zps_eNwkHandleSceLeave
                0x000000000008f7a1                zps_vTidyActvNtAfterJoin
                0x000000000008f830                eUnsolicitedRejoinRspDataDcfm.135279
                0x000000000008f85b                ZPS_vNwkSaveSecMat
 .text          0x000000000008f86f     0x156b C:\Users\Gillis\AppData\Local\Temp\ccnqav2l.ltrans10.ltrans.o
                0x000000000008f86f                zps_bAplZdoNwkAddrServer
                0x000000000008f9f3                vPDM_AddFileSystemElementToListInAscendingWearCountOrder
                0x000000000008fb01                vPDM_MoveFileRecordFromListToList
                0x000000000008fb23                vPDM_MoveRecordToDeAllocList
                0x000000000008fb43                iPDM_WriteSegmentHeaderAndData
                0x000000000008fd3f                vIncrementFrameCounterInPdm.isra.0.137595
                0x000000000008ff1e                vProcessListsForSubmission.136293
                0x00000000000901d8                zps_vNwkMcpsMgrPost
                0x00000000000901fc                zps_psNwkSendRejoinReqCmd.constprop.10
                0x000000000009027a                zps_psSendNetworkStatusCmd
                0x00000000000902e7                psNwkSendRouteRecordCmd.140554
                0x00000000000904e6                zps_eNwkHandleSceRouteRecord
                0x00000000000905c5                zps_eDefaultDataDcfm
                0x00000000000906b4                vSendNetworkReport.135267
                0x000000000009078e                psSendRouteReplyCmd.140542
                0x00000000000908d6                zps_eNwkHandleSceRouteReply
                0x0000000000090b81                vHandleRouteDiscoveryExpiry.140120
                0x0000000000090c52                zps_psNwkPropagateLocalLeave
                0x0000000000090c7a                zps_vNwkHandleCmeLeaveReq
                0x0000000000090d43                iPDM_SegmentCopyAndAppendData.constprop.176
                0x0000000000090da0                u8PostUnicastMsgToNHLE.74319
 .text          0x0000000000090dda     0x1351 C:\Users\Gillis\AppData\Local\Temp\ccnqav2l.ltrans11.ltrans.o
                0x0000000000091a82                os_vzps_taskZPS
                0x0000000000091c9f                vBbcIntHandler.152106
                0x0000000000091f68                os_vzps_isrMAC
                0x0000000000091fa7                vSetKeys
                0x000000000009202c                vResetDataStructures
 .text          0x000000000009212b     0x1906 C:\Users\Gillis\AppData\Local\Temp\ccnqav2l.ltrans12.ltrans.o
                0x000000000009212b                OS_eEnterCriticalSection
                0x00000000000921f3                PDUM_eNPduFree
                0x0000000000092260                zps_vNwkMcpsMgrFreeReqDescr
                0x0000000000092292                zps_vNwkMcpsMgrTidyBtrReqDescr
                0x00000000000922d5                MAC_vHandleMcpsVsReqRsp
                0x0000000000092456                PDUM_hAPduAllocateAPduInstance
                0x00000000000924ca                hZCL_AllocateAPduInstance
                0x0000000000092506                zps_eAplZdoSendZdpResponse
                0x000000000009254f                bSendResponse.104679
                0x0000000000092592                PDUM_eAPduFreeAPduInstance
                0x00000000000928d1                zps_bAplZdoMatchDescServer
                0x00000000000928e5                zps_bAplZdoNodeDescServer
                0x0000000000092a51                zps_bAplZdoSimpleDescServer
                0x0000000000092cb2                zps_bAplZdoPowerDescServer
                0x0000000000092dcf                zps_bAplZdoActiveEpServer
                0x0000000000092eb8                zps_bAplZdoSystemServerDiscoveryServer
                0x0000000000092f41                zps_bAplZdoMgmtLqiServer
                0x000000000009316d                zps_bAplZdoMgmtRtgServer
                0x00000000000932b3                PDM_eReadDataFromRecord
                0x0000000000093335                vLoadAplRecord.80813
                0x0000000000093363                vLoadNwkRecord.137161
                0x000000000009339b                ZPS_eTsvStart
                0x00000000000933f6                zps_eNwkHandleSceNwkUpdate
                0x000000000009341a                vProcessTimedList.136197
                0x0000000000093460                zps_vNwkMcpsMgrPostTimed
                0x0000000000093473                vNwkMcpsSendTimedDfcm
                0x00000000000934b7                zps_vAplAfPostTimerEvent
                0x0000000000093534                zps_vExpireOldRoutes
                0x00000000000935bd                zps_vNwkJoinStStartResponseTimer
                0x00000000000935f7                ZPS_eTsvStop
                0x00000000000937ab                ZPS_vResetBoundServerContext
                0x00000000000937ae                zps_eAplZdoBdrmRequestSend
                0x000000000009384b                zps_vNwkHandleCmePermitJoinReq
                0x00000000000938b3                zps_eNwkBtrMatch
                0x00000000000939b0                zps_vAplApsStopPollTimer.part.3.74198
 .text          0x0000000000093a31     0x13c9 C:\Users\Gillis\AppData\Local\Temp\ccnqav2l.ltrans13.ltrans.o
                0x0000000000093a31                eBeaconReqSent.153055
                0x0000000000093a58                zps_bAplZdoIeeeAddrServer
                0x0000000000093c71                ZPS_vInterceptMcpsDataCallback
                0x0000000000093cd3                vPostVsMcpsDcfmInd.87836
                0x0000000000093dbe                vNwkBttTimerExpiry.142644
                0x0000000000093ede                PWRM_vManagePower
                0x0000000000094028                zps_vSendJoinDcfm
                0x000000000009406e                vGiveUp.147710
                0x00000000000940a6                PDUM_eNPduAllocate
                0x0000000000094115                zps_u8AplApsConstructAndPostLoopBackDataInd.74311
                0x00000000000943ea                eZCL_TransmitInterPanRequest.constprop.37
                0x0000000000094454                eCLD_ZllCommissionCommandNetworkJoinRouterRspCommandSend.constprop.32
                0x000000000009447e                eSendScanResponse.8281.constprop.35
                0x00000000000945bc                zps_psAllocateAndFormatMacHdr
                0x00000000000948bf                zps_psNwkInitCmdFrame
                0x000000000009493e                eSendLinkStatusDataDcfm.part.1.134232
                0x0000000000094a70                vMiniMac_McpsCallback
                0x0000000000094cc8                eMcpsTxCompleteHandler.152546
                0x0000000000094cf6                PDUM_eNPduClone
                0x0000000000094d42                zps_vNwkRemoveConflictedBroadcast
                0x0000000000094d94                vFreePendingReqDescr
 .text          0x0000000000094dfa     0x16cf C:\Users\Gillis\AppData\Local\Temp\ccnqav2l.ltrans14.ltrans.o
                0x0000000000094dfa                zps_eNwkHandleSceLinkStatus
                0x0000000000094f2e                zps_eNwkHandleSceRouteRequest
                0x00000000000953ff                zps_eAplZdoGroupEndpointRemove
                0x0000000000095497                zps_psFindKeyDescr
                0x00000000000955cb                zps_eAplSecEncryptPacket
                0x00000000000956bd                eUnfragmentedUnicastTransmission.74294
                0x0000000000095b69                vHandleZllDeviceJoin
                0x0000000000095cb1                zps_eAplApsmeUpdateDeviceReqRsp.part.4.75867
                0x0000000000095dfa                vHandleTransportKeyFrame.77097
                0x0000000000096008                ZPS_vSetDevicePreviousData.constprop.14
                0x00000000000961f6                zps_vAgeRouter
                0x0000000000096234                zps_eNwkHandleSdeActvDcfmData
                0x00000000000963b9                vMcpsMgrTimeoutExpiry
                0x0000000000096428                zps_vLinkStatusHandleExpiry
 .text.unlikely
                0x00000000000964c9       0x5f C:\Users\Gillis\AppData\Local\Temp\ccnqav2l.ltrans14.ltrans.o
                0x00000000000964c9                vInitUnknownNeighbor.136181
 .text          0x0000000000096528     0x14d0 C:\Users\Gillis\AppData\Local\Temp\ccnqav2l.ltrans15.ltrans.o
                0x0000000000096528                eAssocRespSent.152414
                0x0000000000096626                eRejoinRspDataDcfm.146939
                0x00000000000966f5                zps_eNwkHandleSmeCommStatusInd
                0x00000000000967a9                zps_vCleanUnAuthenHandleExpiry
                0x000000000009683e                zps_vNwkHandleCmeSyncReq
                0x00000000000968d3                zps_vNwkHandleCmeIdleNwkFormReq
                0x00000000000969d8                zps_vNwkHandleCmeNwkDiscReq
                0x0000000000096a52                zps_vNwkHandleCmeEdScanReq
                0x0000000000096bb2                zps_eNwkHandleSmeBeaconNotifyInd
                0x0000000000096c36                zps_eNwkHandleSceNwkReport
                0x0000000000096cb4                zps_vNwkHandleCmeNwkJoinReq
                0x0000000000096f8c                zps_vNwkHandleCmeNwkActvJoinReq
                0x0000000000096f98                eSmeEdScScanDcfm.145084
                0x0000000000097167                vHandleRejoinExpiry.147706
                0x00000000000971ae                zps_eRejoinDataDcfm
                0x00000000000971e1                eSmeAsocAssocDcfm.148314
                0x0000000000097265                eSmeRjPCPollDcfm.148310
                0x00000000000972a6                eSceRjRsRejoinRsp.148278
                0x000000000009737b                zps_eNwkHandleSceNwkStatus
                0x0000000000097530                zps_eProcessAddrConflict
                0x00000000000976dd                ZPS_vNwkNibCheckAndUpdateAddresses
                0x0000000000097774                zps_bAplZdoDeviceAnnceServer
 .text          0x00000000000979f8     0x1300 C:\Users\Gillis\AppData\Local\Temp\ccnqav2l.ltrans16.ltrans.o
                0x0000000000097cae                zps_eZdpMgmtNwkUpdateNotifyResponse
                0x0000000000097d60                zps_eZdpNodeDescResponse
                0x0000000000097e08                zps_eZdpPowerDescResponse
                0x0000000000097ea5                zps_eZdpSimpleDescResponse
                0x0000000000097fb2                zps_eZdpActiveEpResponse
                0x0000000000098048                zps_eZdpMatchDescResponse
                0x00000000000980de                zps_eZdpSystemServerDiscoveryResponse
                0x000000000009814d                eZCL_TransmitDataRequest
                0x00000000000984ad                eZCL_SendDefaultResponse
                0x00000000000985ac                eZCL_CustomCommandReceive
                0x000000000009871a                eOtaCommandHandler
 .text          0x0000000000098cf8     0x1280 C:\Users\Gillis\AppData\Local\Temp\ccnqav2l.ltrans17.ltrans.o
                0x00000000000993da                eCLD_ZllCommissionCommandHandler
                0x0000000000099611                vZCL_EventHandler
 .text          0x0000000000099f78     0x126c C:\Users\Gillis\AppData\Local\Temp\ccnqav2l.ltrans18.ltrans.o
                0x000000000009a13d                os_vTick_Task
                0x000000000009a81c                eOTA_ClientUpgradeEndRequest
                0x000000000009a8c4                vOtaAbortDownload.66118
                0x000000000009a93b                vOtaHandleTimedBlockRequest.66112
                0x000000000009a9d6                vOtaUpgManClientStateIdle.66060
 .text          0x000000000009b1e4     0x124f C:\Users\Gillis\AppData\Local\Temp\ccnqav2l.ltrans19.ltrans.o
                0x000000000009b1e4                eCLD_ColourControlCommandHandler
                0x000000000009c42a                eCLD_OnOffCommandReceive
 .text          0x000000000009c433     0x1100 C:\Users\Gillis\AppData\Local\Temp\ccnqav2l.ltrans20.ltrans.o
                0x000000000009c49b                zps_vNwkHandleCmeActvStartRouterReq
                0x000000000009c5d7                vHandleNwkLocalUpdateAfterBcast.135284
                0x000000000009c62b                vHandleNwkRemoteUpdateAfterBcast.135275
                0x000000000009c67f                eSmeAcScScanDcfm.145091
                0x000000000009c954                ZPS_pvNwkCtor.constprop.115
                0x000000000009ced7                ZPS_vNwkHandleNlmeReqRsp
                0x000000000009cf54                zps_vAplAfPostEvent
                0x000000000009d13b                zps_eAplZdoLeaveNetwork.constprop.76
                0x000000000009d166                zps_bAplZdoMgmtLeaveServer
                0x000000000009d2e6                zps_eAplZdoNlmePermitJoiningWrapper
                0x000000000009d30e                zps_bAplZdoPermitJoiningServer
                0x000000000009d39a                vChangeChannelTimerExpiry.105860
                0x000000000009d3fd                eLeaveReset.149139
                0x000000000009d468                eLeaveDataDcfmLocalLeave.149149
                0x000000000009d4e2                zps_eAplZdoZllStartRouter
 .text          0x000000000009d533     0x107c C:\Users\Gillis\AppData\Local\Temp\ccnqav2l.ltrans21.ltrans.o
                0x000000000009d533                eCLD_ScenesCommandHandler
 *fill*         0x000000000009e5af        0x1 00
 .text          0x000000000009e5b0     0x1108 C:\Users\Gillis\AppData\Local\Temp\ccnqav2l.ltrans22.ltrans.o
                0x000000000009e6fd                vPostNldeDcfmInd.71720
                0x000000000009f1d4                ZPS_vAplHandleApsdeReqRsp
                0x000000000009f5ee                zps_eAplZdpApsdeReqInternal
                0x000000000009f65d                zps_eAplZdpGenStatusOnlyResponse
 .text          0x000000000009f6b8      0xfa4 C:\Users\Gillis\AppData\Local\Temp\ccnqav2l.ltrans23.ltrans.o
                0x000000000009f6b8                vAplSecAuthPollTimerExpiry.80763
                0x000000000009f70a                vAplSecAuthTimerExpiry.80767
                0x000000000009f7d4                vHandleApsInterPanDcfmData
                0x000000000009fbfc                vPostApsdeDcfmInd.71713
                0x000000000009fe21                zps_vHandleApsdeDataFragIndNotSupported
                0x000000000009fe8a                vApsInterPanMcpsDataInd
                0x00000000000a0031                eDiscoverNetworks.80832
                0x00000000000a0087                zps_eAplZdoDiscoverNetworks
                0x00000000000a00b0                eStartNetworkDiscovery.80838
                0x00000000000a0137                eStartRouter.81064
                0x00000000000a0209                vPostApsmeDcfmInd.71706
 .text          0x00000000000a065c     0x1406 C:\Users\Gillis\AppData\Local\Temp\ccnqav2l.ltrans24.ltrans.o
                0x00000000000a065c                bCLD_ScenesSearchForScene.25867
                0x00000000000a068f                eCLD_LevelControlSceneEventHandler.19930
                0x00000000000a06d8                DriverBulb_vSetTunableWhiteColourTemperature
                0x00000000000a06db                vOverideProfileId
                0x00000000000a0715                APP_ZCL_cbGeneralCallback.7140
                0x00000000000a0718                os_bStrictCheck.1358
                0x00000000000a0a5d                bCLD_GroupsSearchForGroup.17246
                0x00000000000a0a82                vEnterErrorHook.68431
                0x00000000000a0aa9                vOtaFlashLockWrite
                0x00000000000a0aef                vOtaFlashLockRead
                0x00000000000a0b35                eOtaSetEventTypeAndGiveCallBack
                0x00000000000a0b50                eOTA_retOtaUseKey
                0x00000000000a0b86                eZCL_BuildClientTransmitAddressStructure
                0x00000000000a0bb7                eZCL_GetAttributeTypeSize
                0x00000000000a0bd6                vZCL_MarkAttributeInvalid
                0x00000000000a0ca5                eZCL_CheckEPstructureIntegrity.44550
                0x00000000000a0e8d                u8ZCL_GetAttributeAllignToFourBytesBoundary
                0x00000000000a0ea2                pvZCL_GetAttributePointer
                0x00000000000a0f18                vReverseMemcpy.part.2.44562
                0x00000000000a0f4d                vReverseMemcpy
                0x00000000000a0f65                sOtaGetHeader
                0x00000000000a1073                u16ZCL_WriteTypeNBO.part.0.45904
                0x00000000000a10c1                u16ZCL_GetStringStructureSize
                0x00000000000a10fe                u16ZCL_GetStringAttributeTypeSizeFromBuffer
                0x00000000000a116f                u16ZCL_GetStringSizeAndBufferFromStructure
                0x00000000000a11fe                bZCL_SendCommandResponse
                0x00000000000a121a                vZCL_GetInternalMutex
                0x00000000000a1243                eZCL_GetMutex
                0x00000000000a127b                vZCL_InitializeClusterInstance
                0x00000000000a1290                u8ZCL_GetEPIdFromIndex
                0x00000000000a12b2                vZCL_ReleaseInternalMutex
                0x00000000000a12cc                u32ZCL_GetUTCTime
                0x00000000000a12e7                eZCL_SearchForAttributeEntry
                0x00000000000a13aa                vCLD_ScenesGenerateIndividualAttributeCallback
                0x00000000000a1404                eZCL_SearchForEPentry
                0x00000000000a145f                eZCL_SearchForEPentryAndCheckManufacturerId
                0x00000000000a149d                vZCL_PassEventToUser
                0x00000000000a14ca                u8ZCL_GetNumberOfEndpointsRegistered
                0x00000000000a14e5                eZCL_ReleaseMutex
                0x00000000000a1514                eZCL_Register.part.1.44559
                0x00000000000a1542                boDLISTisEmpty
                0x00000000000a155a                vDLISTaddToTail
                0x00000000000a1588                psDLISTremoveFromHead
                0x00000000000a15b1                psDLISTremove
                0x00000000000a1609                vCLD_ColourControl_CCT2xyY
                0x00000000000a16ef                bCLD_ColourControl_NumberIsValid.43193
                0x00000000000a170e                eCLD_ColourControl_xyY2XYZ.43197
                0x00000000000a1790                vCLD_ColourControl_XYZ2RGB.43184
                0x00000000000a18b0                vWriteU64ToPayLoad.28200
                0x00000000000a18dd                vWriteU32ToPayLoad.28196
                0x00000000000a18f5                vLI_InitVar.9388
                0x00000000000a1926                InvShiftRows
                0x00000000000a19b9                InvSubBytes
                0x00000000000a19ff                AddRoundKey
                0x00000000000a1a40                getSBoxValue.6490
 .text          0x00000000000a1a62     0x1199 C:\Users\Gillis\AppData\Local\Temp\ccnqav2l.ltrans25.ltrans.o
                0x00000000000a1a62                vOtaUpgManClientStateWaitForRunCommand.66077
                0x00000000000a1b62                vOtaUpgManClientStateDownloadComplete.66073
                0x00000000000a1d0e                vOtaUpgManClientStateDownloadInProgress.66069
                0x00000000000a2718                APP_ZCL_cbEndpointCallback.7137
 *fill*         0x00000000000a2bfb        0x1 00
 .text          0x00000000000a2bfc     0x119c C:\Users\Gillis\AppData\Local\Temp\ccnqav2l.ltrans26.ltrans.o
                0x00000000000a2bfc                zps_bAplZdoDefaultServer
                0x00000000000a2e5d                zps_eZdpMgmtLeaveResponse
                0x00000000000a2e7e                zps_eZdpMgmtPermitJoiningResponse
                0x00000000000a2e9f                zps_eAplZdpRequestApsdeReq
                0x00000000000a2f1f                zps_eAplZdpDeviceAnnceRequest.part.0.109702
                0x00000000000a2f6c                os_vAPP_Commission_Task
 .text          0x00000000000a3d98      0xf74 C:\Users\Gillis\AppData\Local\Temp\ccnqav2l.ltrans27.ltrans.o
                0x00000000000a40f4                zps_eNwkHandleSmeAssocInd
                0x00000000000a4116                zps_eNwkHandleSceRejnRequest
                0x00000000000a423f                zps_eNwkHandleSmeOrphanInd
                0x00000000000a424f                vStartScanTimerExpiry.105864
                0x00000000000a428b                zps_vAplApsPollTimer
                0x00000000000a4445                vPostNlmeDcfmInd.71699
                0x00000000000a4b4f                zps_vProcessChildAddrConflict
                0x00000000000a4c12                vDiscoverNetworks.4770
                0x00000000000a4c7e                vTryNwkJoin.4774
 .text          0x00000000000a4d0c      0xd58 C:\Users\Gillis\AppData\Local\Temp\ccnqav2l.ltrans28.ltrans.o
                0x00000000000a4d0c                zps_eAplZdpMgmtLqiResponse
                0x00000000000a4df4                zps_eAplZdpMgmtRtgResponse
                0x00000000000a4ebb                zps_eZdpNwkAddrResponse
                0x00000000000a4f9e                zps_eZdpIeeeAddrResponse
                0x00000000000a5081                zps_bAplZdoMgmtNWKUpdateServer
                0x00000000000a54f4                zps_bAplZdoZdoClient
                0x00000000000a55ee                os_vAPP_ZPR_Light_Task
 .text          0x00000000000a5a64      0xc64 C:\Users\Gillis\AppData\Local\Temp\ccnqav2l.ltrans29.ltrans.o
                0x00000000000a5a64                os_vZCL_Task
                0x00000000000a5ae6                eZCL_CustomCommandSend.constprop.55
                0x00000000000a5d7e                eCLD_IdentifyCommandHandler
                0x00000000000a61e2                eCLD_GroupsCommandHandler
 .text          0x00000000000a66c8      0x994 C:\Users\Gillis\AppData\Local\Temp\ccnqav2l.ltrans30.ltrans.o
                0x00000000000a66c8                eCLD_LevelControlCommandHandler
                0x00000000000a6a60                eCLD_OnOffCommandHandler
                0x00000000000a6e30                eZCL_CustomCommandInterPanReceive.part.1.44926.constprop.22
                0x00000000000a6f3d                eCLD_ZllCommissionHandleNwkJoinRouterReqCommand.27040
 .text          0x00000000000a705c      0x5e2 C:\Users\Gillis\AppData\Local\Temp\ccnqav2l.ltrans31.ltrans.o
                0x00000000000a705c                AppWarmStart
                0x00000000000a7078                AppColdStart
                0x00000000000a740b                os_vUnclaimedInterrupt
                0x00000000000a741d                os_vControlledIntCheck
                0x00000000000a7462                os_vControlledInterrupt
                0x00000000000a749b                os_vvISR_SystemController
                0x00000000000a74c7                os_vvISR_Timer4
                0x00000000000a74d6                os_vvISR_Timer3
                0x00000000000a74e5                os_vAPP_isrIllegalInstruction
                0x00000000000a74fb                os_vAPP_isrAlignmentException
                0x00000000000a7511                os_vAPP_isrBusErrorException
                0x00000000000a7527                os_vAPP_isrUnimplementedModuleException
                0x00000000000a753a                os_vAPP_isrStackOverflowException
                0x00000000000a754d                os_vAPP_isrTickTimer
 .text          0x00000000000a763e       0x25 c:/nxp/bstudio_nxp/sdk/tools/ba-elf-ba2-r36379/bin/../lib/gcc/ba-elf/4.7.4/../../../../ba-elf/lib/mcpu_jn51xx_sizeopt\libc.a(lib_a-memcmp.o)
                0x00000000000a763e                memcmp
 .text          0x00000000000a7663       0x19 c:/nxp/bstudio_nxp/sdk/tools/ba-elf-ba2-r36379/bin/../lib/gcc/ba-elf/4.7.4/../../../../ba-elf/lib/mcpu_jn51xx_sizeopt\libc.a(lib_a-memcpy.o)
 .text          0x00000000000a767c       0x12 c:/nxp/bstudio_nxp/sdk/tools/ba-elf-ba2-r36379/bin/../lib/gcc/ba-elf/4.7.4/../../../../ba-elf/lib/mcpu_jn51xx_sizeopt\libc.a(lib_a-memset.o)
                0x00000000000a767c                memset
 .text          0x00000000000a768e       0x12 c:/nxp/bstudio_nxp/sdk/tools/ba-elf-ba2-r36379/bin/../lib/gcc/ba-elf/4.7.4/../../../../ba-elf/lib/mcpu_jn51xx_sizeopt\libc.a(lib_a-strlen.o)
                0x00000000000a768e                strlen
 .text          0x00000000000a76a0       0x2b c:/nxp/bstudio_nxp/sdk/tools/ba-elf-ba2-r36379/bin/../lib/gcc/ba-elf/4.7.4/../../../../ba-elf/lib/mcpu_jn51xx_sizeopt\libc.a(lib_a-strncpy.o)
                0x00000000000a76a0                strncpy
 *fill*         0x00000000000a76cb        0x1 00
 .text          0x00000000000a76cc      0x204 c:/nxp/bstudio_nxp/sdk/tools/ba-elf-ba2-r36379/bin/../lib/gcc/ba-elf/4.7.4/mcpu_jn51xx_sizeopt\libgcc.a(__udivsi3.o)
                0x00000000000a76cc                __udivsi3
 .text          0x00000000000a78d0       0x30 c:/nxp/bstudio_nxp/sdk/tools/ba-elf-ba2-r36379/bin/../lib/gcc/ba-elf/4.7.4/mcpu_jn51xx_sizeopt\libgcc.a(__divsi3.o)
                0x00000000000a78d0                __divsi3
 .text          0x00000000000a7900      0x1b0 c:/nxp/bstudio_nxp/sdk/tools/ba-elf-ba2-r36379/bin/../lib/gcc/ba-elf/4.7.4/mcpu_jn51xx_sizeopt\libgcc.a(__umodsi3.o)
                0x00000000000a7900                __umodsi3
 .text          0x00000000000a7ab0       0x24 c:/nxp/bstudio_nxp/sdk/tools/ba-elf-ba2-r36379/bin/../lib/gcc/ba-elf/4.7.4/mcpu_jn51xx_sizeopt\libgcc.a(__modsi3.o)
                0x00000000000a7ab0                __modsi3
 .text          0x00000000000a7ad4       0x39 c:/nxp/bstudio_nxp/sdk/tools/ba-elf-ba2-r36379/bin/../lib/gcc/ba-elf/4.7.4/mcpu_jn51xx_sizeopt\libgcc.a(_fixunsdfsi.o)
                0x00000000000a7ad4                __fixunsdfsi
 .text          0x00000000000a7b0d      0x3bd c:/nxp/bstudio_nxp/sdk/tools/ba-elf-ba2-r36379/bin/../lib/gcc/ba-elf/4.7.4/mcpu_jn51xx_sizeopt\libgcc.a(_divdi3.o)
                0x00000000000a7b0d                __divdi3
 .text          0x00000000000a7eca      0x350 c:/nxp/bstudio_nxp/sdk/tools/ba-elf-ba2-r36379/bin/../lib/gcc/ba-elf/4.7.4/mcpu_jn51xx_sizeopt\libgcc.a(_udivdi3.o)
                0x00000000000a7eca                __udivdi3
 .text          0x00000000000a821a      0x384 c:/nxp/bstudio_nxp/sdk/tools/ba-elf-ba2-r36379/bin/../lib/gcc/ba-elf/4.7.4/mcpu_jn51xx_sizeopt\libgcc.a(addsf3.o)
                0x00000000000a821a                __addsf3
 *fill*         0x00000000000a859e        0x2 00
 .text          0x00000000000a85a0      0x218 c:/nxp/bstudio_nxp/sdk/tools/ba-elf-ba2-r36379/bin/../lib/gcc/ba-elf/4.7.4/mcpu_jn51xx_sizeopt\libgcc.a(divsf3.o)
                0x00000000000a85a0                __divsf3
 .text          0x00000000000a87b8       0x81 c:/nxp/bstudio_nxp/sdk/tools/ba-elf-ba2-r36379/bin/../lib/gcc/ba-elf/4.7.4/mcpu_jn51xx_sizeopt\libgcc.a(eqsf2.o)
                0x00000000000a87b8                __eqsf2
                0x00000000000a87b8                __nesf2
 .text          0x00000000000a8839       0xac c:/nxp/bstudio_nxp/sdk/tools/ba-elf-ba2-r36379/bin/../lib/gcc/ba-elf/4.7.4/mcpu_jn51xx_sizeopt\libgcc.a(gesf2.o)
                0x00000000000a8839                __gesf2
                0x00000000000a8839                __gtsf2
 .text          0x00000000000a88e5       0xac c:/nxp/bstudio_nxp/sdk/tools/ba-elf-ba2-r36379/bin/../lib/gcc/ba-elf/4.7.4/mcpu_jn51xx_sizeopt\libgcc.a(lesf2.o)
                0x00000000000a88e5                __ltsf2
                0x00000000000a88e5                __lesf2
 *fill*         0x00000000000a8991        0x3 00
 .text          0x00000000000a8994      0x24c c:/nxp/bstudio_nxp/sdk/tools/ba-elf-ba2-r36379/bin/../lib/gcc/ba-elf/4.7.4/mcpu_jn51xx_sizeopt\libgcc.a(mulsf3.o)
                0x00000000000a8994                __mulsf3
 .text          0x00000000000a8be0      0x3a2 c:/nxp/bstudio_nxp/sdk/tools/ba-elf-ba2-r36379/bin/../lib/gcc/ba-elf/4.7.4/mcpu_jn51xx_sizeopt\libgcc.a(subsf3.o)
                0x00000000000a8be0                __subsf3
 .text          0x00000000000a8f82       0x53 c:/nxp/bstudio_nxp/sdk/tools/ba-elf-ba2-r36379/bin/../lib/gcc/ba-elf/4.7.4/mcpu_jn51xx_sizeopt\libgcc.a(fixsfsi.o)
                0x00000000000a8f82                __fixsfsi
 .text          0x00000000000a8fd5       0xad c:/nxp/bstudio_nxp/sdk/tools/ba-elf-ba2-r36379/bin/../lib/gcc/ba-elf/4.7.4/mcpu_jn51xx_sizeopt\libgcc.a(floatunsisf.o)
                0x00000000000a8fd5                __floatunsisf
 .text          0x00000000000a9082      0x682 c:/nxp/bstudio_nxp/sdk/tools/ba-elf-ba2-r36379/bin/../lib/gcc/ba-elf/4.7.4/mcpu_jn51xx_sizeopt\libgcc.a(adddf3.o)
                0x00000000000a9082                __adddf3
 .text          0x00000000000a9704      0x5c8 c:/nxp/bstudio_nxp/sdk/tools/ba-elf-ba2-r36379/bin/../lib/gcc/ba-elf/4.7.4/mcpu_jn51xx_sizeopt\libgcc.a(divdf3.o)
                0x00000000000a9704                __divdf3
 .text          0x00000000000a9ccc       0xca c:/nxp/bstudio_nxp/sdk/tools/ba-elf-ba2-r36379/bin/../lib/gcc/ba-elf/4.7.4/mcpu_jn51xx_sizeopt\libgcc.a(gedf2.o)
                0x00000000000a9ccc                __gedf2
                0x00000000000a9ccc                __gtdf2
 *fill*         0x00000000000a9d96        0x2 00
 .text          0x00000000000a9d98      0x488 c:/nxp/bstudio_nxp/sdk/tools/ba-elf-ba2-r36379/bin/../lib/gcc/ba-elf/4.7.4/mcpu_jn51xx_sizeopt\libgcc.a(muldf3.o)
                0x00000000000a9d98                __muldf3
 .text          0x00000000000aa220      0x693 c:/nxp/bstudio_nxp/sdk/tools/ba-elf-ba2-r36379/bin/../lib/gcc/ba-elf/4.7.4/mcpu_jn51xx_sizeopt\libgcc.a(subdf3.o)
                0x00000000000aa220                __subdf3
 .text          0x00000000000aa8b3       0x64 c:/nxp/bstudio_nxp/sdk/tools/ba-elf-ba2-r36379/bin/../lib/gcc/ba-elf/4.7.4/mcpu_jn51xx_sizeopt\libgcc.a(fixdfsi.o)
                0x00000000000aa8b3                __fixdfsi
 .text          0x00000000000aa917       0x8f c:/nxp/bstudio_nxp/sdk/tools/ba-elf-ba2-r36379/bin/../lib/gcc/ba-elf/4.7.4/mcpu_jn51xx_sizeopt\libgcc.a(extendsfdf2.o)
                0x00000000000aa917                __extendsfdf2
 .text          0x00000000000aa9a6      0x13e c:/nxp/bstudio_nxp/sdk/tools/ba-elf-ba2-r36379/bin/../lib/gcc/ba-elf/4.7.4/mcpu_jn51xx_sizeopt\libgcc.a(truncdfsf2.o)
                0x00000000000aa9a6                __truncdfsf2
 *fill*         0x00000000000aaae4        0x4 00
 .text          0x00000000000aaae8      0x1d0 c:/NXP/bstudio_nxp/workspace/JN-AN-1171-ZigBee-LightLink-Demo/Light_ExtendedColorLight/Build/os_irq.o
                0x00000000000aaae8                os_ExternalException_W
                0x00000000000aab2c                os_PIC_ChannelPriorities
                0x00000000000aab3c                os_OSMIUM_HwVectTable
                0x00000000000aab78                os_PIC_SwVectTable
 .text          0x00000000000aacb8       0x29 c:/NXP/bstudio_nxp/workspace/JN-AN-1171-ZigBee-LightLink-Demo/Light_ExtendedColorLight/Build/os_irq_alignment.o
                0x00000000000aacb8                IRQ_Alignment
 .text          0x00000000000aace1       0x29 c:/NXP/bstudio_nxp/workspace/JN-AN-1171-ZigBee-LightLink-Demo/Light_ExtendedColorLight/Build/os_irq_buserror.o
                0x00000000000aace1                IRQ_BusError
 .text          0x00000000000aad0a       0x29 c:/NXP/bstudio_nxp/workspace/JN-AN-1171-ZigBee-LightLink-Demo/Light_ExtendedColorLight/Build/os_irq_illegalinstruction.o
                0x00000000000aad0a                IRQ_IllegalInstruction
 .text          0x00000000000aad33       0x29 c:/NXP/bstudio_nxp/workspace/JN-AN-1171-ZigBee-LightLink-Demo/Light_ExtendedColorLight/Build/os_irq_stackoverflowexception.o
                0x00000000000aad33                IRQ_StackOverflowException
 .text          0x00000000000aad5c       0x29 c:/NXP/bstudio_nxp/workspace/JN-AN-1171-ZigBee-LightLink-Demo/Light_ExtendedColorLight/Build/os_irq_unimplementedmodule.o
                0x00000000000aad5c                IRQ_UnimplementedModule
 *fill*         0x00000000000aad85        0x3 00
 .text          0x00000000000aad88       0xc0 c:/NXP/bstudio_nxp/sdk/JN-SW-4168/Components/Library\libOS_JN516x.a(os_contirq_JN516x.o)
                0x00000000000aad88                os_ExternalException_R
                0x00000000000aadb8                os_CFunc_W
                0x00000000000aae08                os_UnclaimedException_W
                0x00000000000aae28                os_UnclaimedInterrupt_W
 .text          0x00000000000aae48       0x48 c:/NXP/bstudio_nxp/sdk/JN-SW-4168/Components/Library\libPWRM_JN516x.a(pwrm_setjmp_JN516x.o)
                0x00000000000aae48                setjmp
                0x00000000000aae6c                PWRM_longjmp
 .text          0x00000000000aae90       0x27 c:/NXP/bstudio_nxp/sdk/JN-SW-4168/Components/Library\libHardwareApi_JN5169.a(AHI_Interrupt.o)
                0x00000000000aae90                vAHI_InterruptSetPriority
                0x00000000000aaeae                vAHI_InterruptSetActivePriorityLevel
 .text.vMicroSyscall
                0x00000000000aaeb7       0x17 c:/NXP/bstudio_nxp/sdk/JN-SW-4168/Components/Library\libMicroSpecific_JN516x.a(MicroSyscall_ba.o)
                0x00000000000aaeb7                vMicroSyscall
 .text          0x00000000000aaece        0x0 c:/NXP/bstudio_nxp/sdk/JN-SW-4168/Components/Library\libOS_JN516x.a(os_version_lc.o)
                0x00000000000aaece                OS_Version_1v2
 .text          0x00000000000aaece        0x0 c:/NXP/bstudio_nxp/sdk/JN-SW-4168/Components/Library\libZPSAPL_JN516x.a(zps_apl_version_lc.o)
                0x00000000000aaece                ZPS_APL_Version_2v0
 .text          0x00000000000aaece        0x0 c:/NXP/bstudio_nxp/sdk/JN-SW-4168/Components/Library\libZPSNWK_JN516x.a(zps_nwk_version_lc.o)
                0x00000000000aaece                ZPS_NWK_Version_2v0
 .text          0x00000000000aaece      0x12a c:/nxp/bstudio_nxp/sdk/tools/ba-elf-ba2-r36379/bin/../lib/gcc/ba-elf/4.7.4/../../../../ba-elf/lib/mcpu_jn51xx_sizeopt\libm.a(lib_a-s_floor.o)
                0x00000000000aaece                floor
                0x00000000000aaff8                _flash_end = ABSOLUTE (.)

.rela.dyn       0x00000000000aaff8        0x0
 .rela.text     0x0000000000000000        0x0 c:/NXP/bstudio_nxp/workspace/JN-AN-1171-ZigBee-LightLink-Demo/Light_ExtendedColorLight/Build/os_irq.o
 .rela.data     0x0000000000000000        0x0 c:/NXP/bstudio_nxp/workspace/JN-AN-1171-ZigBee-LightLink-Demo/Light_ExtendedColorLight/Build/os_irq.o
 .rela.rodata   0x0000000000000000        0x0 c:/NXP/bstudio_nxp/workspace/JN-AN-1171-ZigBee-LightLink-Demo/Light_ExtendedColorLight/Build/os_irq.o
                0x000000000400004c                . = ORIGIN (ram)

.data           0x000000000400004c      0x9dc load address 0x00000000000aaff8
                0x000000000400004c                _ram_data_start = ABSOLUTE (.)
 *(.data*)
 .data          0x000000000400004c       0xf8 C:\Users\Gillis\AppData\Local\Temp\ccnqav2l.ltrans0.ltrans.o
                0x000000000400004c                u8MiniMacConfig_MaxConcurrentAssocResponses
                0x0000000004000050                psShadowRxBuffer
 .data          0x0000000004000144      0x148 C:\Users\Gillis\AppData\Local\Temp\ccnqav2l.ltrans1.ltrans.o
                0x0000000004000144                u32HeapStart
                0x0000000004000148                asCLD_ColourControlCCTlist
 .data          0x000000000400028c        0x1 C:\Users\Gillis\AppData\Local\Temp\ccnqav2l.ltrans3.ltrans.o
 .data          0x000000000400028d        0x1 C:\Users\Gillis\AppData\Local\Temp\ccnqav2l.ltrans4.ltrans.o
 .data          0x000000000400028e        0x1 C:\Users\Gillis\AppData\Local\Temp\ccnqav2l.ltrans5.ltrans.o
 .data          0x000000000400028f        0x1 C:\Users\Gillis\AppData\Local\Temp\ccnqav2l.ltrans11.ltrans.o
 .data          0x0000000004000290        0x6 C:\Users\Gillis\AppData\Local\Temp\ccnqav2l.ltrans13.ltrans.o
 *fill*         0x0000000004000296        0x2 00
 .data          0x0000000004000298        0x4 C:\Users\Gillis\AppData\Local\Temp\ccnqav2l.ltrans14.ltrans.o
                0x0000000004000298                bCanLoopback.74547
 .data          0x000000000400029c        0xc C:\Users\Gillis\AppData\Local\Temp\ccnqav2l.ltrans18.ltrans.o
 .data          0x00000000040002a8       0xa4 C:\Users\Gillis\AppData\Local\Temp\ccnqav2l.ltrans24.ltrans.o
                0x00000000040002a8                s_asapduZCLInstances
                0x0000000004000320                s_asapduZDPInstances
 *fill*         0x000000000400034c        0x4 00
 .data          0x0000000004000350       0x20 C:\Users\Gillis\AppData\Local\Temp\ccnqav2l.ltrans25.ltrans.o
                0x0000000004000350                u32OTAQueryTimeinSec.9333
                0x0000000004000358                sZllState
 .data          0x0000000004000370       0x38 C:\Users\Gillis\AppData\Local\Temp\ccnqav2l.ltrans26.ltrans.o
                0x0000000004000370                sDeviceTable
 .data          0x00000000040003a8      0x668 C:\Users\Gillis\AppData\Local\Temp\ccnqav2l.ltrans31.ltrans.o
                0x00000000040003a8                s_keyPairTableStorage.3131
                0x0000000004000408                os_Mutex_mutexMAC
                0x0000000004000410                os_Mutex_mutexZPS
                0x0000000004000418                s_sApl.3086
                0x0000000004000568                os_Message_APP_msgZpsEvents_ZCL
                0x000000000400058c                os_SWTimer_APP_cntrTickTimer_APP_DiscoveryTimer
                0x00000000040005a8                os_SWTimer_APP_cntrTickTimer_APP_CommissionTimer
                0x00000000040005c4                os_SWTimer_APP_cntrTickTimer_APP_TickTimer
                0x00000000040005e0                os_Message_APP_msgZpsEvents
                0x0000000004000604                os_Message_APP_msgEvents
                0x0000000004000628                os_Message_APP_msgPOREvents
                0x000000000400064c                os_Message_APP_DiscoveryEvents
                0x0000000004000670                os_Message_APP_CommissionEvents
                0x0000000004000694                os_SWTimer_APP_cntrTickTimer_APP_RadioRecalTimer
                0x00000000040006b0                os_Message_zps_msgMlmeDcfmInd
                0x00000000040006d4                os_Message_zps_msgTimeEvents
                0x00000000040006f8                os_Message_zps_msgMcpsDcfmInd
                0x000000000400071c                os_Message_zps_msgMcpsDcfm
                0x0000000004000740                os_SWTimer_APP_cntrTickTimer_APP_PowerOnCountTimer
                0x000000000400075c                os_Task_ZCL_Task
                0x0000000004000768                os_Task_APP_ButtonsScanTask
                0x0000000004000774                os_Task_APP_DiscoveryTimerTask
                0x0000000004000780                os_Task_APP_CommissionTimerTask
                0x000000000400078c                os_Task_Tick_Task
                0x0000000004000798                os_Task_APP_ZPR_Light_Task
                0x00000000040007a4                os_Task_APP_Commission_Task
                0x00000000040007b0                os_Task_zps_taskZPS
                0x00000000040007bc                os_Task_APP_vManagePowerOnCount
                0x00000000040007c8                os_SWTimer_APP_cntrTickTimer_APP_ButtonsScanTimer
                0x00000000040007e4                u8AhiBaudRate.130435
                0x00000000040007e8                sLI_Vars.9415
                0x0000000004000828                s_prbMemberCheck.68555
                0x000000000400082c                s_prvErrorHook.68553
                0x0000000004000830                g_u8ZpsExpiryMaxCount
 .data.s_asAPduPool
                0x0000000004000a10       0x18 c:/NXP/bstudio_nxp/workspace/JN-AN-1171-ZigBee-LightLink-Demo/Light_ExtendedColorLight/Build/pdum_apdu.o
                0x0000000004000a10                pdum_apduZDP
                0x0000000004000a10                s_asAPduPool
                0x0000000004000a1c                pdum_apduZCL
 *(.data.*)
                0x0000000004000a28                . = ALIGN (0x4)
                0x0000000004000a28                _ram_data_end = ABSOLUTE (.)

.bss            0x0000000004000a28     0x42d8 load address 0x00000000000ab9d4
                0x0000000004000a28                _bss_start = ABSOLUTE (.)
 *(.bss*)
 .bss           0x0000000004000a28      0x630 C:\Users\Gillis\AppData\Local\Temp\ccnqav2l.ltrans0.ltrans.o
                0x0000000004000a28                psNextWake.68626
                0x0000000004000a2c                s_bWakeTimerActive.68627
                0x0000000004000a2d                s_ePowerMode.68628
                0x0000000004000a2e                gu16NumberOfSegments.156184
                0x0000000004000a30                pfExtendedStatusCallBack.134794
                0x0000000004000a34                sScenesCustomData.4580
                0x0000000004000b78                s_u32x.128089
                0x0000000004000b7c                pfOptionsFilterCallback
                0x0000000004000b80                pfnHandleZllDeviceJoin
                0x0000000004000b84                s_prExpireFn.157322
                0x0000000004000b88                s_hMutex.157321
                0x0000000004000b8c                pvRxStore
                0x0000000004000b90                pvTxStore
                0x0000000004000b94                g_pvAplHandle
                0x0000000004000b98                s_hMacMutex
                0x0000000004000b9c                s_sDcfmIndMgr.157086
                0x0000000004000ba4                prAppMlmeGetBuffer
                0x0000000004000ba8                prAppMlmeCallback
                0x0000000004000bac                u8MiniMac_RunTimeOptions
                0x0000000004000bb0                sReversedMacAddr.154348
                0x0000000004000bb8                sThisDeviceMacAddr
                0x0000000004000bc0                gZpsSetByProfile.71676
                0x0000000004000bc4                psPDM_Common
                0x0000000004000bc8                s_groupTablePdmStorage.3235
 .bss           0x0000000004001058        0x1 C:\Users\Gillis\AppData\Local\Temp\ccnqav2l.ltrans1.ltrans.o
 *fill*         0x0000000004001059        0x3 00
 .bss           0x000000000400105c      0xc84 C:\Users\Gillis\AppData\Local\Temp\ccnqav2l.ltrans2.ltrans.o
 .bss           0x0000000004001ce0       0x28 C:\Users\Gillis\AppData\Local\Temp\ccnqav2l.ltrans3.ltrans.o
                0x0000000004001ce0                prIntHandler.154752
                0x0000000004001ce4                psTimerServerList
 .bss           0x0000000004001d08        0x2 C:\Users\Gillis\AppData\Local\Temp\ccnqav2l.ltrans4.ltrans.o
 *fill*         0x0000000004001d0a        0x2 00
 .bss           0x0000000004001d0c       0x10 C:\Users\Gillis\AppData\Local\Temp\ccnqav2l.ltrans5.ltrans.o
                0x0000000004001d0c                vFlushFn.130379
                0x0000000004001d10                vPutchFn.130374
                0x0000000004001d14                bAHI_ExtendedTemperatureOperation
                0x0000000004001d18                g_tSpiConfiguration
 .bss           0x0000000004001d1c        0xc C:\Users\Gillis\AppData\Local\Temp\ccnqav2l.ltrans6.ltrans.o
                0x0000000004001d1c                a16NwkPdmRecordSizes
 .bss           0x0000000004001d28        0xc C:\Users\Gillis\AppData\Local\Temp\ccnqav2l.ltrans7.ltrans.o
                0x0000000004001d28                bResetScanTimer.153308
 .bss           0x0000000004001d34       0x40 C:\Users\Gillis\AppData\Local\Temp\ccnqav2l.ltrans8.ltrans.o
 .bss           0x0000000004001d74       0x28 C:\Users\Gillis\AppData\Local\Temp\ccnqav2l.ltrans9.ltrans.o
                0x0000000004001d74                apvAplPdmRecordsAddress
                0x0000000004001d8c                au16AplPdmRecordsSize
 .bss           0x0000000004001d9c        0x1 C:\Users\Gillis\AppData\Local\Temp\ccnqav2l.ltrans10.ltrans.o
 *fill*         0x0000000004001d9d        0x3 00
 .bss           0x0000000004001da0       0xac C:\Users\Gillis\AppData\Local\Temp\ccnqav2l.ltrans11.ltrans.o
                0x0000000004001da0                aprTimerCallback
                0x0000000004001dc0                au32TimerCounter
                0x0000000004001de0                sMiniMacInternal
                0x0000000004001e18                s_psVsMcpsDcfmInd.89135
                0x0000000004001e1c                s_psMacDcfmInd.89134
                0x0000000004001e20                bCheckChild
                0x0000000004001e24                u32DataQueueCount
 .bss           0x0000000004001e4c       0x18 C:\Users\Gillis\AppData\Local\Temp\ccnqav2l.ltrans12.ltrans.o
                0x0000000004001e4c                s_psCurrentTask.68549
                0x0000000004001e50                s_asAPduPool.68984
                0x0000000004001e54                s_hMutex.68985
                0x0000000004001e58                s_psNPduPoolEnd.68870
                0x0000000004001e5c                s_psNPduPoolStart.68869
 .bss           0x0000000004001e64       0x50 C:\Users\Gillis\AppData\Local\Temp\ccnqav2l.ltrans13.ltrans.o
                0x0000000004001e64                u8MaxNpdu.68868
                0x0000000004001e65                u8Count.68867
                0x0000000004001e68                s_psFreeListHead.68866
                0x0000000004001e6c                s_hMutex.68865
                0x0000000004001e70                bIgnoreBroadcast
 *fill*         0x0000000004001eb4        0x4 00
 .bss           0x0000000004001eb8       0x48 C:\Users\Gillis\AppData\Local\Temp\ccnqav2l.ltrans14.ltrans.o
                0x0000000004001eb8                psFreeMsgListHead
 .bss           0x0000000004001f00       0x28 C:\Users\Gillis\AppData\Local\Temp\ccnqav2l.ltrans15.ltrans.o
                0x0000000004001f00                sMiniMacPhyPib
 .bss           0x0000000004001f28        0x4 C:\Users\Gillis\AppData\Local\Temp\ccnqav2l.ltrans16.ltrans.o
                0x0000000004001f28                pfOverrideProfile
 .bss           0x0000000004001f2c       0x18 C:\Users\Gillis\AppData\Local\Temp\ccnqav2l.ltrans18.ltrans.o
                0x0000000004001f2c                sIdEffect
                0x0000000004001f38                bIntEnableFlag.155075
                0x0000000004001f3c                psZCL_Common
 .bss           0x0000000004001f44        0xc C:\Users\Gillis\AppData\Local\Temp\ccnqav2l.ltrans22.ltrans.o
                0x0000000004001f44                psAplDefaultZLLAPSLinkKey
                0x0000000004001f48                psActiveMsgListHead
                0x0000000004001f4c                s_u16ActivityCounter
 .bss           0x0000000004001f50      0x454 C:\Users\Gillis\AppData\Local\Temp\ccnqav2l.ltrans24.ltrans.o
 *fill*         0x00000000040023a4        0x4 00
 .bss           0x00000000040023a8      0x9e0 C:\Users\Gillis\AppData\Local\Temp\ccnqav2l.ltrans25.ltrans.o
                0x00000000040023a8                sOTA_PersistedData_App.9323
                0x0000000004002450                sOTA_PersistedData
                0x00000000040024f8                bWaitUgradeTime.9329
                0x00000000040024fc                u32TimeOut.9328
                0x0000000004002500                eOTA_State.9330
                0x0000000004002504                u32OTARetry.9340
                0x0000000004002508                sLight
                0x0000000004002d60                sNvmDefsStruct
 .bss           0x0000000004002d88      0x190 C:\Users\Gillis\AppData\Local\Temp\ccnqav2l.ltrans26.ltrans.o
                0x0000000004002d88                state
                0x0000000004002d98                RoundKey
                0x0000000004002e88                sDstAddr
                0x0000000004002e98                eState.8498
 .bss           0x0000000004002f18       0x30 C:\Users\Gillis\AppData\Local\Temp\ccnqav2l.ltrans27.ltrans.o
                0x0000000004002f18                sRecoverDevice
 .bss           0x0000000004002f48       0xb4 C:\Users\Gillis\AppData\Local\Temp\ccnqav2l.ltrans28.ltrans.o
                0x0000000004002f48                u32OldFrameCtr
                0x0000000004002f4c                sPowerOnCounts
                0x0000000004002f50                bTLRequestLeave
                0x0000000004002f51                bScanSlow
                0x0000000004002f54                psNwkDescTbl
                0x0000000004002f58                u8NwkCount
                0x0000000004002f59                u8NwkIdx
                0x0000000004002f5a                u8ChanIdx
                0x0000000004002f5c                sMiniMacPib
                0x0000000004002ff8                bDefaultServerIgnoreHandleMgmtUpdate
 .bss           0x0000000004002ffc        0x4 C:\Users\Gillis\AppData\Local\Temp\ccnqav2l.ltrans29.ltrans.o
                0x0000000004002ffc                zps_psNwk
 .bss           0x0000000004003000        0x1 C:\Users\Gillis\AppData\Local\Temp\ccnqav2l.ltrans30.ltrans.o
                0x0000000004003000                bFlag_SaveScenesNVM
 *fill*         0x0000000004003001        0xf 00
 .bss           0x0000000004003010     0x1cb0 C:\Users\Gillis\AppData\Local\Temp\ccnqav2l.ltrans31.ltrans.o
                0x0000000004003010                s_sDefaultServerContext.3145
                0x0000000004003014                s_sMgmtRtgServerContext.3083
                0x0000000004003018                s_sPermitJoiningServerContext.3084
                0x000000000400301c                s_sMgmtNWKUpdateServerContext.3085
                0x000000000400305c                s_sMgmtLeaveServerContext.3144
                0x0000000004003084                s_sMgmtLqiServerContext.3143
                0x0000000004003088                s_sSimpleDescServerContext.3142
                0x000000000400308c                s_sMatchDescServerContext.3141
                0x0000000004003090                s_sPowerDescServerContext.3140
                0x0000000004003094                s_sNodeDescServerContext.3139
                0x0000000004003098                s_sSystemServerDiscoveryServerContext.3138
                0x000000000400309c                s_sIeeeAddrServerContext.3137
                0x00000000040030a0                s_sNwkAddrServerContext.3136
                0x00000000040030a4                s_sActiveEpServerContext.3135
                0x00000000040030a8                s_sZdoClientContext.3133
                0x00000000040030a8                s_sDeviceAnnceServerContext.3134
                0x00000000040030b0                s_u32LastExpiredTime.3278
                0x00000000040030b4                s_u32CompareTime.3277
                0x00000000040030b8                s_prvCurrentISR.68556
                0x00000000040030bc                u8AhiUart.130434
                0x00000000040030bd                u8SetGreenLEDLevel
                0x00000000040030be                u8SetBlueLEDLevel
                0x00000000040030bf                u8SetRedLEDLevel
                0x00000000040030c0                s_u32CurrentPriorityMask.68548
                0x00000000040030c4                s_u8OSLevelIPL.68552
                0x00000000040030c8                s_asTasks.68551
                0x00000000040030cc                s_u32PendingQueue.68550
                0x00000000040030d0                pwrm_CPUContext
 .bss.dontinitinboot
                0x0000000004004cc0       0x40 c:/NXP/bstudio_nxp/sdk/JN-SW-4168/Components/Library\libBoot_JN516x.a(ExceptionHandler.o)
                0x0000000004004cc0                isr_handlers
 *(.bss.*)
 *(.scommon*)
 *(.scommon.*)
 *(COMMON)
                0x0000000004004d00                . = ALIGN (0x4)
                0x0000000004004d00                _bss_end = ABSOLUTE (.)

.heap           0x0000000004004d00      0x7d0 load address 0x00000000000afcac
                0x0000000004004d00                _heap_start = ABSOLUTE (.)
                0x00000000040054d0                . = (. + __minimum_heap_size)
 *fill*         0x0000000004004d00      0x7d0 00

.stack          0x0000000004006890     0x1770 load address 0x00000000000b183c
                0x0000000004006890                _heap_end = ABSOLUTE (.)
                0x0000000004006890                _stack_low_water_mark = ABSOLUTE (.)
                0x0000000004008000                . = (. + __stack_size)
 *fill*         0x0000000004006890     0x1770 00

.test           0x00000000000ab9d4        0x1
                0x00000000000ab9d4        0x1 BYTE 0xff
                0x00000000000aaff8                _flash_data_start = LOADADDR (.data)
                0x00000000000009dc                _ram_data_len = (((_ram_data_end - _ram_data_start) + 0x3) & 0xfffffffffffffffc)
                0x00000000000042d8                _bss_len = (((_bss_end - _bss_start) + 0x3) & 0xfffffffffffffffc)
                0x000000000002b9d4                _image_len = ((((_flash_end - _flash_start) + _ram_data_len) + 0x3) & 0xfffffffffffffffc)
                0x0000000004008000                _ram_top = (ABSOLUTE (ORIGIN (ram)) + 0x7fb4)
                0x0000000004008000                ram_top = (ABSOLUTE (ORIGIN (ram)) + 0x7fb4)
                0x0000000001001580                _app_ram_start = 0x1001580
                0x0000000004000144                PROVIDE (_heap_location, u32HeapStart)
                0x0000000004000144                PROVIDE (heap_location, u32HeapStart)
OUTPUT(c:/NXP/bstudio_nxp/workspace/JN-AN-1171-ZigBee-LightLink-Demo/Light_ExtendedColorLight/Build/Light_ExtendedColorLight_JN5169_DR1175.elf elf32-ba)

.comment        0x0000000000000000       0x11
 .comment       0x0000000000000000       0x12 C:\Users\Gillis\AppData\Local\Temp\ccnqav2l.ltrans0.ltrans.o
 .comment       0x0000000000000000       0x12 C:\Users\Gillis\AppData\Local\Temp\ccnqav2l.ltrans1.ltrans.o
 .comment       0x0000000000000000       0x12 C:\Users\Gillis\AppData\Local\Temp\ccnqav2l.ltrans2.ltrans.o
 .comment       0x0000000000000000       0x12 C:\Users\Gillis\AppData\Local\Temp\ccnqav2l.ltrans3.ltrans.o
 .comment       0x0000000000000000       0x12 C:\Users\Gillis\AppData\Local\Temp\ccnqav2l.ltrans4.ltrans.o
 .comment       0x0000000000000000       0x12 C:\Users\Gillis\AppData\Local\Temp\ccnqav2l.ltrans5.ltrans.o
 .comment       0x0000000000000000       0x12 C:\Users\Gillis\AppData\Local\Temp\ccnqav2l.ltrans6.ltrans.o
 .comment       0x0000000000000000       0x12 C:\Users\Gillis\AppData\Local\Temp\ccnqav2l.ltrans7.ltrans.o
 .comment       0x0000000000000000       0x12 C:\Users\Gillis\AppData\Local\Temp\ccnqav2l.ltrans8.ltrans.o
 .comment       0x0000000000000000       0x12 C:\Users\Gillis\AppData\Local\Temp\ccnqav2l.ltrans9.ltrans.o
 .comment       0x0000000000000000       0x12 C:\Users\Gillis\AppData\Local\Temp\ccnqav2l.ltrans10.ltrans.o
 .comment       0x0000000000000000       0x12 C:\Users\Gillis\AppData\Local\Temp\ccnqav2l.ltrans11.ltrans.o
 .comment       0x0000000000000000       0x12 C:\Users\Gillis\AppData\Local\Temp\ccnqav2l.ltrans12.ltrans.o
 .comment       0x0000000000000000       0x12 C:\Users\Gillis\AppData\Local\Temp\ccnqav2l.ltrans13.ltrans.o
 .comment       0x0000000000000000       0x12 C:\Users\Gillis\AppData\Local\Temp\ccnqav2l.ltrans14.ltrans.o
 .comment       0x0000000000000000       0x12 C:\Users\Gillis\AppData\Local\Temp\ccnqav2l.ltrans15.ltrans.o
 .comment       0x0000000000000000       0x12 C:\Users\Gillis\AppData\Local\Temp\ccnqav2l.ltrans16.ltrans.o
 .comment       0x0000000000000000       0x12 C:\Users\Gillis\AppData\Local\Temp\ccnqav2l.ltrans17.ltrans.o
 .comment       0x0000000000000000       0x12 C:\Users\Gillis\AppData\Local\Temp\ccnqav2l.ltrans18.ltrans.o
 .comment       0x0000000000000000       0x12 C:\Users\Gillis\AppData\Local\Temp\ccnqav2l.ltrans19.ltrans.o
 .comment       0x0000000000000000       0x12 C:\Users\Gillis\AppData\Local\Temp\ccnqav2l.ltrans20.ltrans.o
 .comment       0x0000000000000000       0x12 C:\Users\Gillis\AppData\Local\Temp\ccnqav2l.ltrans21.ltrans.o
 .comment       0x0000000000000000       0x12 C:\Users\Gillis\AppData\Local\Temp\ccnqav2l.ltrans22.ltrans.o
 .comment       0x0000000000000000       0x12 C:\Users\Gillis\AppData\Local\Temp\ccnqav2l.ltrans23.ltrans.o
 .comment       0x0000000000000000       0x12 C:\Users\Gillis\AppData\Local\Temp\ccnqav2l.ltrans24.ltrans.o
 .comment       0x0000000000000000       0x12 C:\Users\Gillis\AppData\Local\Temp\ccnqav2l.ltrans25.ltrans.o
 .comment       0x0000000000000000       0x12 C:\Users\Gillis\AppData\Local\Temp\ccnqav2l.ltrans26.ltrans.o
 .comment       0x0000000000000000       0x12 C:\Users\Gillis\AppData\Local\Temp\ccnqav2l.ltrans27.ltrans.o
 .comment       0x0000000000000000       0x12 C:\Users\Gillis\AppData\Local\Temp\ccnqav2l.ltrans28.ltrans.o
 .comment       0x0000000000000000       0x12 C:\Users\Gillis\AppData\Local\Temp\ccnqav2l.ltrans29.ltrans.o
 .comment       0x0000000000000000       0x12 C:\Users\Gillis\AppData\Local\Temp\ccnqav2l.ltrans30.ltrans.o
 .comment       0x0000000000000000       0x12 C:\Users\Gillis\AppData\Local\Temp\ccnqav2l.ltrans31.ltrans.o
 .comment       0x0000000000000000       0x12 c:/nxp/bstudio_nxp/sdk/tools/ba-elf-ba2-r36379/bin/../lib/gcc/ba-elf/4.7.4/../../../../ba-elf/lib/mcpu_jn51xx_sizeopt\libc.a(lib_a-memcmp.o)
 .comment       0x0000000000000000       0x12 c:/nxp/bstudio_nxp/sdk/tools/ba-elf-ba2-r36379/bin/../lib/gcc/ba-elf/4.7.4/../../../../ba-elf/lib/mcpu_jn51xx_sizeopt\libc.a(lib_a-memcpy.o)
 .comment       0x0000000000000000       0x12 c:/nxp/bstudio_nxp/sdk/tools/ba-elf-ba2-r36379/bin/../lib/gcc/ba-elf/4.7.4/../../../../ba-elf/lib/mcpu_jn51xx_sizeopt\libc.a(lib_a-memset.o)
 .comment       0x0000000000000000       0x12 c:/nxp/bstudio_nxp/sdk/tools/ba-elf-ba2-r36379/bin/../lib/gcc/ba-elf/4.7.4/../../../../ba-elf/lib/mcpu_jn51xx_sizeopt\libc.a(lib_a-strlen.o)
 .comment       0x0000000000000000       0x12 c:/nxp/bstudio_nxp/sdk/tools/ba-elf-ba2-r36379/bin/../lib/gcc/ba-elf/4.7.4/../../../../ba-elf/lib/mcpu_jn51xx_sizeopt\libc.a(lib_a-strncpy.o)
 .comment       0x0000000000000000       0x12 c:/nxp/bstudio_nxp/sdk/tools/ba-elf-ba2-r36379/bin/../lib/gcc/ba-elf/4.7.4/mcpu_jn51xx_sizeopt\libgcc.a(_fixunsdfsi.o)
 .comment       0x0000000000000000       0x12 c:/nxp/bstudio_nxp/sdk/tools/ba-elf-ba2-r36379/bin/../lib/gcc/ba-elf/4.7.4/mcpu_jn51xx_sizeopt\libgcc.a(_divdi3.o)
 .comment       0x0000000000000000       0x12 c:/nxp/bstudio_nxp/sdk/tools/ba-elf-ba2-r36379/bin/../lib/gcc/ba-elf/4.7.4/mcpu_jn51xx_sizeopt\libgcc.a(_udivdi3.o)
 .comment       0x0000000000000000       0x12 c:/nxp/bstudio_nxp/sdk/tools/ba-elf-ba2-r36379/bin/../lib/gcc/ba-elf/4.7.4/mcpu_jn51xx_sizeopt\libgcc.a(addsf3.o)
 .comment       0x0000000000000000       0x12 c:/nxp/bstudio_nxp/sdk/tools/ba-elf-ba2-r36379/bin/../lib/gcc/ba-elf/4.7.4/mcpu_jn51xx_sizeopt\libgcc.a(divsf3.o)
 .comment       0x0000000000000000       0x12 c:/nxp/bstudio_nxp/sdk/tools/ba-elf-ba2-r36379/bin/../lib/gcc/ba-elf/4.7.4/mcpu_jn51xx_sizeopt\libgcc.a(eqsf2.o)
 .comment       0x0000000000000000       0x12 c:/nxp/bstudio_nxp/sdk/tools/ba-elf-ba2-r36379/bin/../lib/gcc/ba-elf/4.7.4/mcpu_jn51xx_sizeopt\libgcc.a(gesf2.o)
 .comment       0x0000000000000000       0x12 c:/nxp/bstudio_nxp/sdk/tools/ba-elf-ba2-r36379/bin/../lib/gcc/ba-elf/4.7.4/mcpu_jn51xx_sizeopt\libgcc.a(lesf2.o)
 .comment       0x0000000000000000       0x12 c:/nxp/bstudio_nxp/sdk/tools/ba-elf-ba2-r36379/bin/../lib/gcc/ba-elf/4.7.4/mcpu_jn51xx_sizeopt\libgcc.a(mulsf3.o)
 .comment       0x0000000000000000       0x12 c:/nxp/bstudio_nxp/sdk/tools/ba-elf-ba2-r36379/bin/../lib/gcc/ba-elf/4.7.4/mcpu_jn51xx_sizeopt\libgcc.a(subsf3.o)
 .comment       0x0000000000000000       0x12 c:/nxp/bstudio_nxp/sdk/tools/ba-elf-ba2-r36379/bin/../lib/gcc/ba-elf/4.7.4/mcpu_jn51xx_sizeopt\libgcc.a(fixsfsi.o)
 .comment       0x0000000000000000       0x12 c:/nxp/bstudio_nxp/sdk/tools/ba-elf-ba2-r36379/bin/../lib/gcc/ba-elf/4.7.4/mcpu_jn51xx_sizeopt\libgcc.a(floatunsisf.o)
 .comment       0x0000000000000000       0x12 c:/nxp/bstudio_nxp/sdk/tools/ba-elf-ba2-r36379/bin/../lib/gcc/ba-elf/4.7.4/mcpu_jn51xx_sizeopt\libgcc.a(adddf3.o)
 .comment       0x0000000000000000       0x12 c:/nxp/bstudio_nxp/sdk/tools/ba-elf-ba2-r36379/bin/../lib/gcc/ba-elf/4.7.4/mcpu_jn51xx_sizeopt\libgcc.a(divdf3.o)
 .comment       0x0000000000000000       0x12 c:/nxp/bstudio_nxp/sdk/tools/ba-elf-ba2-r36379/bin/../lib/gcc/ba-elf/4.7.4/mcpu_jn51xx_sizeopt\libgcc.a(gedf2.o)
 .comment       0x0000000000000000       0x12 c:/nxp/bstudio_nxp/sdk/tools/ba-elf-ba2-r36379/bin/../lib/gcc/ba-elf/4.7.4/mcpu_jn51xx_sizeopt\libgcc.a(muldf3.o)
 .comment       0x0000000000000000       0x12 c:/nxp/bstudio_nxp/sdk/tools/ba-elf-ba2-r36379/bin/../lib/gcc/ba-elf/4.7.4/mcpu_jn51xx_sizeopt\libgcc.a(subdf3.o)
 .comment       0x0000000000000000       0x12 c:/nxp/bstudio_nxp/sdk/tools/ba-elf-ba2-r36379/bin/../lib/gcc/ba-elf/4.7.4/mcpu_jn51xx_sizeopt\libgcc.a(fixdfsi.o)
 .comment       0x0000000000000000       0x12 c:/nxp/bstudio_nxp/sdk/tools/ba-elf-ba2-r36379/bin/../lib/gcc/ba-elf/4.7.4/mcpu_jn51xx_sizeopt\libgcc.a(extendsfdf2.o)
 .comment       0x0000000000000000       0x12 c:/nxp/bstudio_nxp/sdk/tools/ba-elf-ba2-r36379/bin/../lib/gcc/ba-elf/4.7.4/mcpu_jn51xx_sizeopt\libgcc.a(truncdfsf2.o)
 .comment       0x0000000000000000       0x11 c:/NXP/bstudio_nxp/sdk/JN-SW-4168/Components/Library\libMicroSpecific_JN516x.a(MicroSyscall_ba.o)
                                         0x12 (size before relaxing)
 .comment       0x0000000000000000       0x12 c:/nxp/bstudio_nxp/sdk/tools/ba-elf-ba2-r36379/bin/../lib/gcc/ba-elf/4.7.4/../../../../ba-elf/lib/mcpu_jn51xx_sizeopt\libm.a(lib_a-s_floor.o)

.debug_info     0x0000000000000000     0x48cb
 .debug_info    0x0000000000000000       0xf3 c:/nxp/bstudio_nxp/sdk/tools/ba-elf-ba2-r36379/bin/../lib/gcc/ba-elf/4.7.4/../../../../ba-elf/lib/mcpu_jn51xx_sizeopt\libc.a(lib_a-memcmp.o)
 .debug_info    0x00000000000000f3      0x106 c:/nxp/bstudio_nxp/sdk/tools/ba-elf-ba2-r36379/bin/../lib/gcc/ba-elf/4.7.4/../../../../ba-elf/lib/mcpu_jn51xx_sizeopt\libc.a(lib_a-memcpy.o)
 .debug_info    0x00000000000001f9       0xd7 c:/nxp/bstudio_nxp/sdk/tools/ba-elf-ba2-r36379/bin/../lib/gcc/ba-elf/4.7.4/../../../../ba-elf/lib/mcpu_jn51xx_sizeopt\libc.a(lib_a-memset.o)
 .debug_info    0x00000000000002d0       0xc8 c:/nxp/bstudio_nxp/sdk/tools/ba-elf-ba2-r36379/bin/../lib/gcc/ba-elf/4.7.4/../../../../ba-elf/lib/mcpu_jn51xx_sizeopt\libc.a(lib_a-strlen.o)
 .debug_info    0x0000000000000398       0xf9 c:/nxp/bstudio_nxp/sdk/tools/ba-elf-ba2-r36379/bin/../lib/gcc/ba-elf/4.7.4/../../../../ba-elf/lib/mcpu_jn51xx_sizeopt\libc.a(lib_a-strncpy.o)
 .debug_info    0x0000000000000491       0xb4 c:/nxp/bstudio_nxp/sdk/tools/ba-elf-ba2-r36379/bin/../lib/gcc/ba-elf/4.7.4/mcpu_jn51xx_sizeopt\libgcc.a(__udivsi3.o)
 .debug_info    0x0000000000000545       0xb4 c:/nxp/bstudio_nxp/sdk/tools/ba-elf-ba2-r36379/bin/../lib/gcc/ba-elf/4.7.4/mcpu_jn51xx_sizeopt\libgcc.a(__divsi3.o)
 .debug_info    0x00000000000005f9       0xb4 c:/nxp/bstudio_nxp/sdk/tools/ba-elf-ba2-r36379/bin/../lib/gcc/ba-elf/4.7.4/mcpu_jn51xx_sizeopt\libgcc.a(__umodsi3.o)
 .debug_info    0x00000000000006ad       0xb4 c:/nxp/bstudio_nxp/sdk/tools/ba-elf-ba2-r36379/bin/../lib/gcc/ba-elf/4.7.4/mcpu_jn51xx_sizeopt\libgcc.a(__modsi3.o)
 .debug_info    0x0000000000000761       0xd3 c:/nxp/bstudio_nxp/sdk/tools/ba-elf-ba2-r36379/bin/../lib/gcc/ba-elf/4.7.4/mcpu_jn51xx_sizeopt\libgcc.a(_fixunsdfsi.o)
 .debug_info    0x0000000000000834      0x68a c:/nxp/bstudio_nxp/sdk/tools/ba-elf-ba2-r36379/bin/../lib/gcc/ba-elf/4.7.4/mcpu_jn51xx_sizeopt\libgcc.a(_divdi3.o)
 .debug_info    0x0000000000000ebe      0x648 c:/nxp/bstudio_nxp/sdk/tools/ba-elf-ba2-r36379/bin/../lib/gcc/ba-elf/4.7.4/mcpu_jn51xx_sizeopt\libgcc.a(_udivdi3.o)
 .debug_info    0x0000000000001506      0x2b5 c:/nxp/bstudio_nxp/sdk/tools/ba-elf-ba2-r36379/bin/../lib/gcc/ba-elf/4.7.4/mcpu_jn51xx_sizeopt\libgcc.a(addsf3.o)
 .debug_info    0x00000000000017bb      0x2b1 c:/nxp/bstudio_nxp/sdk/tools/ba-elf-ba2-r36379/bin/../lib/gcc/ba-elf/4.7.4/mcpu_jn51xx_sizeopt\libgcc.a(divsf3.o)
 .debug_info    0x0000000000001a6c      0x1c6 c:/nxp/bstudio_nxp/sdk/tools/ba-elf-ba2-r36379/bin/../lib/gcc/ba-elf/4.7.4/mcpu_jn51xx_sizeopt\libgcc.a(eqsf2.o)
 .debug_info    0x0000000000001c32      0x1e9 c:/nxp/bstudio_nxp/sdk/tools/ba-elf-ba2-r36379/bin/../lib/gcc/ba-elf/4.7.4/mcpu_jn51xx_sizeopt\libgcc.a(gesf2.o)
 .debug_info    0x0000000000001e1b      0x1ec c:/nxp/bstudio_nxp/sdk/tools/ba-elf-ba2-r36379/bin/../lib/gcc/ba-elf/4.7.4/mcpu_jn51xx_sizeopt\libgcc.a(lesf2.o)
 .debug_info    0x0000000000002007      0x302 c:/nxp/bstudio_nxp/sdk/tools/ba-elf-ba2-r36379/bin/../lib/gcc/ba-elf/4.7.4/mcpu_jn51xx_sizeopt\libgcc.a(mulsf3.o)
 .debug_info    0x0000000000002309      0x2b5 c:/nxp/bstudio_nxp/sdk/tools/ba-elf-ba2-r36379/bin/../lib/gcc/ba-elf/4.7.4/mcpu_jn51xx_sizeopt\libgcc.a(subsf3.o)
 .debug_info    0x00000000000025be      0x19d c:/nxp/bstudio_nxp/sdk/tools/ba-elf-ba2-r36379/bin/../lib/gcc/ba-elf/4.7.4/mcpu_jn51xx_sizeopt\libgcc.a(fixsfsi.o)
 .debug_info    0x000000000000275b      0x1af c:/nxp/bstudio_nxp/sdk/tools/ba-elf-ba2-r36379/bin/../lib/gcc/ba-elf/4.7.4/mcpu_jn51xx_sizeopt\libgcc.a(floatunsisf.o)
 .debug_info    0x000000000000290a      0x4b2 c:/nxp/bstudio_nxp/sdk/tools/ba-elf-ba2-r36379/bin/../lib/gcc/ba-elf/4.7.4/mcpu_jn51xx_sizeopt\libgcc.a(adddf3.o)
 .debug_info    0x0000000000002dbc      0x5c5 c:/nxp/bstudio_nxp/sdk/tools/ba-elf-ba2-r36379/bin/../lib/gcc/ba-elf/4.7.4/mcpu_jn51xx_sizeopt\libgcc.a(divdf3.o)
 .debug_info    0x0000000000003381      0x20b c:/nxp/bstudio_nxp/sdk/tools/ba-elf-ba2-r36379/bin/../lib/gcc/ba-elf/4.7.4/mcpu_jn51xx_sizeopt\libgcc.a(gedf2.o)
 .debug_info    0x000000000000358c      0x5c7 c:/nxp/bstudio_nxp/sdk/tools/ba-elf-ba2-r36379/bin/../lib/gcc/ba-elf/4.7.4/mcpu_jn51xx_sizeopt\libgcc.a(muldf3.o)
 .debug_info    0x0000000000003b53      0x4b2 c:/nxp/bstudio_nxp/sdk/tools/ba-elf-ba2-r36379/bin/../lib/gcc/ba-elf/4.7.4/mcpu_jn51xx_sizeopt\libgcc.a(subdf3.o)
 .debug_info    0x0000000000004005      0x1b7 c:/nxp/bstudio_nxp/sdk/tools/ba-elf-ba2-r36379/bin/../lib/gcc/ba-elf/4.7.4/mcpu_jn51xx_sizeopt\libgcc.a(fixdfsi.o)
 .debug_info    0x00000000000041bc      0x262 c:/nxp/bstudio_nxp/sdk/tools/ba-elf-ba2-r36379/bin/../lib/gcc/ba-elf/4.7.4/mcpu_jn51xx_sizeopt\libgcc.a(extendsfdf2.o)
 .debug_info    0x000000000000441e      0x246 c:/nxp/bstudio_nxp/sdk/tools/ba-elf-ba2-r36379/bin/../lib/gcc/ba-elf/4.7.4/mcpu_jn51xx_sizeopt\libgcc.a(truncdfsf2.o)
 .debug_info    0x0000000000004664       0xb6 c:/NXP/bstudio_nxp/sdk/JN-SW-4168/Components/Library\libBoot_JN516x.a(ExceptionHandler.o)
 .debug_info    0x000000000000471a      0x1b1 c:/nxp/bstudio_nxp/sdk/tools/ba-elf-ba2-r36379/bin/../lib/gcc/ba-elf/4.7.4/../../../../ba-elf/lib/mcpu_jn51xx_sizeopt\libm.a(lib_a-s_floor.o)

.debug_abbrev   0x0000000000000000     0x1b2e
 .debug_abbrev  0x0000000000000000       0x8e c:/nxp/bstudio_nxp/sdk/tools/ba-elf-ba2-r36379/bin/../lib/gcc/ba-elf/4.7.4/../../../../ba-elf/lib/mcpu_jn51xx_sizeopt\libc.a(lib_a-memcmp.o)
 .debug_abbrev  0x000000000000008e       0xa4 c:/nxp/bstudio_nxp/sdk/tools/ba-elf-ba2-r36379/bin/../lib/gcc/ba-elf/4.7.4/../../../../ba-elf/lib/mcpu_jn51xx_sizeopt\libc.a(lib_a-memcpy.o)
 .debug_abbrev  0x0000000000000132       0x8e c:/nxp/bstudio_nxp/sdk/tools/ba-elf-ba2-r36379/bin/../lib/gcc/ba-elf/4.7.4/../../../../ba-elf/lib/mcpu_jn51xx_sizeopt\libc.a(lib_a-memset.o)
 .debug_abbrev  0x00000000000001c0       0x7f c:/nxp/bstudio_nxp/sdk/tools/ba-elf-ba2-r36379/bin/../lib/gcc/ba-elf/4.7.4/../../../../ba-elf/lib/mcpu_jn51xx_sizeopt\libc.a(lib_a-strlen.o)
 .debug_abbrev  0x000000000000023f       0x8e c:/nxp/bstudio_nxp/sdk/tools/ba-elf-ba2-r36379/bin/../lib/gcc/ba-elf/4.7.4/../../../../ba-elf/lib/mcpu_jn51xx_sizeopt\libc.a(lib_a-strncpy.o)
 .debug_abbrev  0x00000000000002cd       0x14 c:/nxp/bstudio_nxp/sdk/tools/ba-elf-ba2-r36379/bin/../lib/gcc/ba-elf/4.7.4/mcpu_jn51xx_sizeopt\libgcc.a(__udivsi3.o)
 .debug_abbrev  0x00000000000002e1       0x14 c:/nxp/bstudio_nxp/sdk/tools/ba-elf-ba2-r36379/bin/../lib/gcc/ba-elf/4.7.4/mcpu_jn51xx_sizeopt\libgcc.a(__divsi3.o)
 .debug_abbrev  0x00000000000002f5       0x14 c:/nxp/bstudio_nxp/sdk/tools/ba-elf-ba2-r36379/bin/../lib/gcc/ba-elf/4.7.4/mcpu_jn51xx_sizeopt\libgcc.a(__umodsi3.o)
 .debug_abbrev  0x0000000000000309       0x14 c:/nxp/bstudio_nxp/sdk/tools/ba-elf-ba2-r36379/bin/../lib/gcc/ba-elf/4.7.4/mcpu_jn51xx_sizeopt\libgcc.a(__modsi3.o)
 .debug_abbrev  0x000000000000031d       0x60 c:/nxp/bstudio_nxp/sdk/tools/ba-elf-ba2-r36379/bin/../lib/gcc/ba-elf/4.7.4/mcpu_jn51xx_sizeopt\libgcc.a(_fixunsdfsi.o)
 .debug_abbrev  0x000000000000037d      0x16e c:/nxp/bstudio_nxp/sdk/tools/ba-elf-ba2-r36379/bin/../lib/gcc/ba-elf/4.7.4/mcpu_jn51xx_sizeopt\libgcc.a(_divdi3.o)
 .debug_abbrev  0x00000000000004eb      0x15d c:/nxp/bstudio_nxp/sdk/tools/ba-elf-ba2-r36379/bin/../lib/gcc/ba-elf/4.7.4/mcpu_jn51xx_sizeopt\libgcc.a(_udivdi3.o)
 .debug_abbrev  0x0000000000000648      0x133 c:/nxp/bstudio_nxp/sdk/tools/ba-elf-ba2-r36379/bin/../lib/gcc/ba-elf/4.7.4/mcpu_jn51xx_sizeopt\libgcc.a(addsf3.o)
 .debug_abbrev  0x000000000000077b      0x126 c:/nxp/bstudio_nxp/sdk/tools/ba-elf-ba2-r36379/bin/../lib/gcc/ba-elf/4.7.4/mcpu_jn51xx_sizeopt\libgcc.a(divsf3.o)
 .debug_abbrev  0x00000000000008a1      0x11b c:/nxp/bstudio_nxp/sdk/tools/ba-elf-ba2-r36379/bin/../lib/gcc/ba-elf/4.7.4/mcpu_jn51xx_sizeopt\libgcc.a(eqsf2.o)
 .debug_abbrev  0x00000000000009bc      0x12a c:/nxp/bstudio_nxp/sdk/tools/ba-elf-ba2-r36379/bin/../lib/gcc/ba-elf/4.7.4/mcpu_jn51xx_sizeopt\libgcc.a(gesf2.o)
 .debug_abbrev  0x0000000000000ae6      0x12a c:/nxp/bstudio_nxp/sdk/tools/ba-elf-ba2-r36379/bin/../lib/gcc/ba-elf/4.7.4/mcpu_jn51xx_sizeopt\libgcc.a(lesf2.o)
 .debug_abbrev  0x0000000000000c10      0x12d c:/nxp/bstudio_nxp/sdk/tools/ba-elf-ba2-r36379/bin/../lib/gcc/ba-elf/4.7.4/mcpu_jn51xx_sizeopt\libgcc.a(mulsf3.o)
 .debug_abbrev  0x0000000000000d3d      0x133 c:/nxp/bstudio_nxp/sdk/tools/ba-elf-ba2-r36379/bin/../lib/gcc/ba-elf/4.7.4/mcpu_jn51xx_sizeopt\libgcc.a(subsf3.o)
 .debug_abbrev  0x0000000000000e70      0x12c c:/nxp/bstudio_nxp/sdk/tools/ba-elf-ba2-r36379/bin/../lib/gcc/ba-elf/4.7.4/mcpu_jn51xx_sizeopt\libgcc.a(fixsfsi.o)
 .debug_abbrev  0x0000000000000f9c      0x11b c:/nxp/bstudio_nxp/sdk/tools/ba-elf-ba2-r36379/bin/../lib/gcc/ba-elf/4.7.4/mcpu_jn51xx_sizeopt\libgcc.a(floatunsisf.o)
 .debug_abbrev  0x00000000000010b7      0x133 c:/nxp/bstudio_nxp/sdk/tools/ba-elf-ba2-r36379/bin/../lib/gcc/ba-elf/4.7.4/mcpu_jn51xx_sizeopt\libgcc.a(adddf3.o)
 .debug_abbrev  0x00000000000011ea      0x12f c:/nxp/bstudio_nxp/sdk/tools/ba-elf-ba2-r36379/bin/../lib/gcc/ba-elf/4.7.4/mcpu_jn51xx_sizeopt\libgcc.a(divdf3.o)
 .debug_abbrev  0x0000000000001319      0x137 c:/nxp/bstudio_nxp/sdk/tools/ba-elf-ba2-r36379/bin/../lib/gcc/ba-elf/4.7.4/mcpu_jn51xx_sizeopt\libgcc.a(gedf2.o)
 .debug_abbrev  0x0000000000001450      0x141 c:/nxp/bstudio_nxp/sdk/tools/ba-elf-ba2-r36379/bin/../lib/gcc/ba-elf/4.7.4/mcpu_jn51xx_sizeopt\libgcc.a(muldf3.o)
 .debug_abbrev  0x0000000000001591      0x133 c:/nxp/bstudio_nxp/sdk/tools/ba-elf-ba2-r36379/bin/../lib/gcc/ba-elf/4.7.4/mcpu_jn51xx_sizeopt\libgcc.a(subdf3.o)
 .debug_abbrev  0x00000000000016c4      0x12a c:/nxp/bstudio_nxp/sdk/tools/ba-elf-ba2-r36379/bin/../lib/gcc/ba-elf/4.7.4/mcpu_jn51xx_sizeopt\libgcc.a(fixdfsi.o)
 .debug_abbrev  0x00000000000017ee      0x126 c:/nxp/bstudio_nxp/sdk/tools/ba-elf-ba2-r36379/bin/../lib/gcc/ba-elf/4.7.4/mcpu_jn51xx_sizeopt\libgcc.a(extendsfdf2.o)
 .debug_abbrev  0x0000000000001914      0x11b c:/nxp/bstudio_nxp/sdk/tools/ba-elf-ba2-r36379/bin/../lib/gcc/ba-elf/4.7.4/mcpu_jn51xx_sizeopt\libgcc.a(truncdfsf2.o)
 .debug_abbrev  0x0000000000001a2f       0x14 c:/NXP/bstudio_nxp/sdk/JN-SW-4168/Components/Library\libBoot_JN516x.a(ExceptionHandler.o)
 .debug_abbrev  0x0000000000001a43       0xeb c:/nxp/bstudio_nxp/sdk/tools/ba-elf-ba2-r36379/bin/../lib/gcc/ba-elf/4.7.4/../../../../ba-elf/lib/mcpu_jn51xx_sizeopt\libm.a(lib_a-s_floor.o)

.debug_loc      0x0000000000000000     0x81c8
 .debug_loc     0x0000000000000000       0x73 c:/nxp/bstudio_nxp/sdk/tools/ba-elf-ba2-r36379/bin/../lib/gcc/ba-elf/4.7.4/../../../../ba-elf/lib/mcpu_jn51xx_sizeopt\libc.a(lib_a-memcmp.o)
 .debug_loc     0x0000000000000073       0x39 c:/nxp/bstudio_nxp/sdk/tools/ba-elf-ba2-r36379/bin/../lib/gcc/ba-elf/4.7.4/../../../../ba-elf/lib/mcpu_jn51xx_sizeopt\libc.a(lib_a-memcpy.o)
 .debug_loc     0x00000000000000ac       0x3f c:/nxp/bstudio_nxp/sdk/tools/ba-elf-ba2-r36379/bin/../lib/gcc/ba-elf/4.7.4/../../../../ba-elf/lib/mcpu_jn51xx_sizeopt\libc.a(lib_a-memset.o)
 .debug_loc     0x00000000000000eb       0x3f c:/nxp/bstudio_nxp/sdk/tools/ba-elf-ba2-r36379/bin/../lib/gcc/ba-elf/4.7.4/../../../../ba-elf/lib/mcpu_jn51xx_sizeopt\libc.a(lib_a-strlen.o)
 .debug_loc     0x000000000000012a       0x93 c:/nxp/bstudio_nxp/sdk/tools/ba-elf-ba2-r36379/bin/../lib/gcc/ba-elf/4.7.4/../../../../ba-elf/lib/mcpu_jn51xx_sizeopt\libc.a(lib_a-strncpy.o)
 .debug_loc     0x00000000000001bd       0x48 c:/nxp/bstudio_nxp/sdk/tools/ba-elf-ba2-r36379/bin/../lib/gcc/ba-elf/4.7.4/mcpu_jn51xx_sizeopt\libgcc.a(_fixunsdfsi.o)
 .debug_loc     0x0000000000000205      0xe52 c:/nxp/bstudio_nxp/sdk/tools/ba-elf-ba2-r36379/bin/../lib/gcc/ba-elf/4.7.4/mcpu_jn51xx_sizeopt\libgcc.a(_divdi3.o)
 .debug_loc     0x0000000000001057      0xa7b c:/nxp/bstudio_nxp/sdk/tools/ba-elf-ba2-r36379/bin/../lib/gcc/ba-elf/4.7.4/mcpu_jn51xx_sizeopt\libgcc.a(_udivdi3.o)
 .debug_loc     0x0000000000001ad2      0x8d5 c:/nxp/bstudio_nxp/sdk/tools/ba-elf-ba2-r36379/bin/../lib/gcc/ba-elf/4.7.4/mcpu_jn51xx_sizeopt\libgcc.a(addsf3.o)
 .debug_loc     0x00000000000023a7      0x498 c:/nxp/bstudio_nxp/sdk/tools/ba-elf-ba2-r36379/bin/../lib/gcc/ba-elf/4.7.4/mcpu_jn51xx_sizeopt\libgcc.a(divsf3.o)
 .debug_loc     0x000000000000283f       0xc2 c:/nxp/bstudio_nxp/sdk/tools/ba-elf-ba2-r36379/bin/../lib/gcc/ba-elf/4.7.4/mcpu_jn51xx_sizeopt\libgcc.a(eqsf2.o)
 .debug_loc     0x0000000000002901      0x15e c:/nxp/bstudio_nxp/sdk/tools/ba-elf-ba2-r36379/bin/../lib/gcc/ba-elf/4.7.4/mcpu_jn51xx_sizeopt\libgcc.a(gesf2.o)
 .debug_loc     0x0000000000002a5f      0x10f c:/nxp/bstudio_nxp/sdk/tools/ba-elf-ba2-r36379/bin/../lib/gcc/ba-elf/4.7.4/mcpu_jn51xx_sizeopt\libgcc.a(lesf2.o)
 .debug_loc     0x0000000000002b6e      0x4a6 c:/nxp/bstudio_nxp/sdk/tools/ba-elf-ba2-r36379/bin/../lib/gcc/ba-elf/4.7.4/mcpu_jn51xx_sizeopt\libgcc.a(mulsf3.o)
 .debug_loc     0x0000000000003014      0x957 c:/nxp/bstudio_nxp/sdk/tools/ba-elf-ba2-r36379/bin/../lib/gcc/ba-elf/4.7.4/mcpu_jn51xx_sizeopt\libgcc.a(subsf3.o)
 .debug_loc     0x000000000000396b       0x85 c:/nxp/bstudio_nxp/sdk/tools/ba-elf-ba2-r36379/bin/../lib/gcc/ba-elf/4.7.4/mcpu_jn51xx_sizeopt\libgcc.a(fixsfsi.o)
 .debug_loc     0x00000000000039f0      0x15c c:/nxp/bstudio_nxp/sdk/tools/ba-elf-ba2-r36379/bin/../lib/gcc/ba-elf/4.7.4/mcpu_jn51xx_sizeopt\libgcc.a(floatunsisf.o)
 .debug_loc     0x0000000000003b4c     0x10f3 c:/nxp/bstudio_nxp/sdk/tools/ba-elf-ba2-r36379/bin/../lib/gcc/ba-elf/4.7.4/mcpu_jn51xx_sizeopt\libgcc.a(adddf3.o)
 .debug_loc     0x0000000000004c3f     0x117e c:/nxp/bstudio_nxp/sdk/tools/ba-elf-ba2-r36379/bin/../lib/gcc/ba-elf/4.7.4/mcpu_jn51xx_sizeopt\libgcc.a(divdf3.o)
 .debug_loc     0x0000000000005dbd      0x154 c:/nxp/bstudio_nxp/sdk/tools/ba-elf-ba2-r36379/bin/../lib/gcc/ba-elf/4.7.4/mcpu_jn51xx_sizeopt\libgcc.a(gedf2.o)
 .debug_loc     0x0000000000005f11      0xa0e c:/nxp/bstudio_nxp/sdk/tools/ba-elf-ba2-r36379/bin/../lib/gcc/ba-elf/4.7.4/mcpu_jn51xx_sizeopt\libgcc.a(muldf3.o)
 .debug_loc     0x000000000000691f     0x114e c:/nxp/bstudio_nxp/sdk/tools/ba-elf-ba2-r36379/bin/../lib/gcc/ba-elf/4.7.4/mcpu_jn51xx_sizeopt\libgcc.a(subdf3.o)
 .debug_loc     0x0000000000007a6d       0xa8 c:/nxp/bstudio_nxp/sdk/tools/ba-elf-ba2-r36379/bin/../lib/gcc/ba-elf/4.7.4/mcpu_jn51xx_sizeopt\libgcc.a(fixdfsi.o)
 .debug_loc     0x0000000000007b15      0x1ed c:/nxp/bstudio_nxp/sdk/tools/ba-elf-ba2-r36379/bin/../lib/gcc/ba-elf/4.7.4/mcpu_jn51xx_sizeopt\libgcc.a(extendsfdf2.o)
 .debug_loc     0x0000000000007d02      0x299 c:/nxp/bstudio_nxp/sdk/tools/ba-elf-ba2-r36379/bin/../lib/gcc/ba-elf/4.7.4/mcpu_jn51xx_sizeopt\libgcc.a(truncdfsf2.o)
 .debug_loc     0x0000000000007f9b      0x22d c:/nxp/bstudio_nxp/sdk/tools/ba-elf-ba2-r36379/bin/../lib/gcc/ba-elf/4.7.4/../../../../ba-elf/lib/mcpu_jn51xx_sizeopt\libm.a(lib_a-s_floor.o)

.debug_aranges  0x0000000000000000      0x3e0
 .debug_aranges
                0x0000000000000000       0x20 c:/nxp/bstudio_nxp/sdk/tools/ba-elf-ba2-r36379/bin/../lib/gcc/ba-elf/4.7.4/../../../../ba-elf/lib/mcpu_jn51xx_sizeopt\libc.a(lib_a-memcmp.o)
 .debug_aranges
                0x0000000000000020       0x20 c:/nxp/bstudio_nxp/sdk/tools/ba-elf-ba2-r36379/bin/../lib/gcc/ba-elf/4.7.4/../../../../ba-elf/lib/mcpu_jn51xx_sizeopt\libc.a(lib_a-memcpy.o)
 .debug_aranges
                0x0000000000000040       0x20 c:/nxp/bstudio_nxp/sdk/tools/ba-elf-ba2-r36379/bin/../lib/gcc/ba-elf/4.7.4/../../../../ba-elf/lib/mcpu_jn51xx_sizeopt\libc.a(lib_a-memset.o)
 .debug_aranges
                0x0000000000000060       0x20 c:/nxp/bstudio_nxp/sdk/tools/ba-elf-ba2-r36379/bin/../lib/gcc/ba-elf/4.7.4/../../../../ba-elf/lib/mcpu_jn51xx_sizeopt\libc.a(lib_a-strlen.o)
 .debug_aranges
                0x0000000000000080       0x20 c:/nxp/bstudio_nxp/sdk/tools/ba-elf-ba2-r36379/bin/../lib/gcc/ba-elf/4.7.4/../../../../ba-elf/lib/mcpu_jn51xx_sizeopt\libc.a(lib_a-strncpy.o)
 .debug_aranges
                0x00000000000000a0       0x20 c:/nxp/bstudio_nxp/sdk/tools/ba-elf-ba2-r36379/bin/../lib/gcc/ba-elf/4.7.4/mcpu_jn51xx_sizeopt\libgcc.a(__udivsi3.o)
 .debug_aranges
                0x00000000000000c0       0x20 c:/nxp/bstudio_nxp/sdk/tools/ba-elf-ba2-r36379/bin/../lib/gcc/ba-elf/4.7.4/mcpu_jn51xx_sizeopt\libgcc.a(__divsi3.o)
 .debug_aranges
                0x00000000000000e0       0x20 c:/nxp/bstudio_nxp/sdk/tools/ba-elf-ba2-r36379/bin/../lib/gcc/ba-elf/4.7.4/mcpu_jn51xx_sizeopt\libgcc.a(__umodsi3.o)
 .debug_aranges
                0x0000000000000100       0x20 c:/nxp/bstudio_nxp/sdk/tools/ba-elf-ba2-r36379/bin/../lib/gcc/ba-elf/4.7.4/mcpu_jn51xx_sizeopt\libgcc.a(__modsi3.o)
 .debug_aranges
                0x0000000000000120       0x20 c:/nxp/bstudio_nxp/sdk/tools/ba-elf-ba2-r36379/bin/../lib/gcc/ba-elf/4.7.4/mcpu_jn51xx_sizeopt\libgcc.a(_fixunsdfsi.o)
 .debug_aranges
                0x0000000000000140       0x20 c:/nxp/bstudio_nxp/sdk/tools/ba-elf-ba2-r36379/bin/../lib/gcc/ba-elf/4.7.4/mcpu_jn51xx_sizeopt\libgcc.a(_divdi3.o)
 .debug_aranges
                0x0000000000000160       0x20 c:/nxp/bstudio_nxp/sdk/tools/ba-elf-ba2-r36379/bin/../lib/gcc/ba-elf/4.7.4/mcpu_jn51xx_sizeopt\libgcc.a(_udivdi3.o)
 .debug_aranges
                0x0000000000000180       0x20 c:/nxp/bstudio_nxp/sdk/tools/ba-elf-ba2-r36379/bin/../lib/gcc/ba-elf/4.7.4/mcpu_jn51xx_sizeopt\libgcc.a(addsf3.o)
 .debug_aranges
                0x00000000000001a0       0x20 c:/nxp/bstudio_nxp/sdk/tools/ba-elf-ba2-r36379/bin/../lib/gcc/ba-elf/4.7.4/mcpu_jn51xx_sizeopt\libgcc.a(divsf3.o)
 .debug_aranges
                0x00000000000001c0       0x20 c:/nxp/bstudio_nxp/sdk/tools/ba-elf-ba2-r36379/bin/../lib/gcc/ba-elf/4.7.4/mcpu_jn51xx_sizeopt\libgcc.a(eqsf2.o)
 .debug_aranges
                0x00000000000001e0       0x20 c:/nxp/bstudio_nxp/sdk/tools/ba-elf-ba2-r36379/bin/../lib/gcc/ba-elf/4.7.4/mcpu_jn51xx_sizeopt\libgcc.a(gesf2.o)
 .debug_aranges
                0x0000000000000200       0x20 c:/nxp/bstudio_nxp/sdk/tools/ba-elf-ba2-r36379/bin/../lib/gcc/ba-elf/4.7.4/mcpu_jn51xx_sizeopt\libgcc.a(lesf2.o)
 .debug_aranges
                0x0000000000000220       0x20 c:/nxp/bstudio_nxp/sdk/tools/ba-elf-ba2-r36379/bin/../lib/gcc/ba-elf/4.7.4/mcpu_jn51xx_sizeopt\libgcc.a(mulsf3.o)
 .debug_aranges
                0x0000000000000240       0x20 c:/nxp/bstudio_nxp/sdk/tools/ba-elf-ba2-r36379/bin/../lib/gcc/ba-elf/4.7.4/mcpu_jn51xx_sizeopt\libgcc.a(subsf3.o)
 .debug_aranges
                0x0000000000000260       0x20 c:/nxp/bstudio_nxp/sdk/tools/ba-elf-ba2-r36379/bin/../lib/gcc/ba-elf/4.7.4/mcpu_jn51xx_sizeopt\libgcc.a(fixsfsi.o)
 .debug_aranges
                0x0000000000000280       0x20 c:/nxp/bstudio_nxp/sdk/tools/ba-elf-ba2-r36379/bin/../lib/gcc/ba-elf/4.7.4/mcpu_jn51xx_sizeopt\libgcc.a(floatunsisf.o)
 .debug_aranges
                0x00000000000002a0       0x20 c:/nxp/bstudio_nxp/sdk/tools/ba-elf-ba2-r36379/bin/../lib/gcc/ba-elf/4.7.4/mcpu_jn51xx_sizeopt\libgcc.a(adddf3.o)
 .debug_aranges
                0x00000000000002c0       0x20 c:/nxp/bstudio_nxp/sdk/tools/ba-elf-ba2-r36379/bin/../lib/gcc/ba-elf/4.7.4/mcpu_jn51xx_sizeopt\libgcc.a(divdf3.o)
 .debug_aranges
                0x00000000000002e0       0x20 c:/nxp/bstudio_nxp/sdk/tools/ba-elf-ba2-r36379/bin/../lib/gcc/ba-elf/4.7.4/mcpu_jn51xx_sizeopt\libgcc.a(gedf2.o)
 .debug_aranges
                0x0000000000000300       0x20 c:/nxp/bstudio_nxp/sdk/tools/ba-elf-ba2-r36379/bin/../lib/gcc/ba-elf/4.7.4/mcpu_jn51xx_sizeopt\libgcc.a(muldf3.o)
 .debug_aranges
                0x0000000000000320       0x20 c:/nxp/bstudio_nxp/sdk/tools/ba-elf-ba2-r36379/bin/../lib/gcc/ba-elf/4.7.4/mcpu_jn51xx_sizeopt\libgcc.a(subdf3.o)
 .debug_aranges
                0x0000000000000340       0x20 c:/nxp/bstudio_nxp/sdk/tools/ba-elf-ba2-r36379/bin/../lib/gcc/ba-elf/4.7.4/mcpu_jn51xx_sizeopt\libgcc.a(fixdfsi.o)
 .debug_aranges
                0x0000000000000360       0x20 c:/nxp/bstudio_nxp/sdk/tools/ba-elf-ba2-r36379/bin/../lib/gcc/ba-elf/4.7.4/mcpu_jn51xx_sizeopt\libgcc.a(extendsfdf2.o)
 .debug_aranges
                0x0000000000000380       0x20 c:/nxp/bstudio_nxp/sdk/tools/ba-elf-ba2-r36379/bin/../lib/gcc/ba-elf/4.7.4/mcpu_jn51xx_sizeopt\libgcc.a(truncdfsf2.o)
 .debug_aranges
                0x00000000000003a0       0x20 c:/NXP/bstudio_nxp/sdk/JN-SW-4168/Components/Library\libBoot_JN516x.a(ExceptionHandler.o)
 .debug_aranges
                0x00000000000003c0       0x20 c:/nxp/bstudio_nxp/sdk/tools/ba-elf-ba2-r36379/bin/../lib/gcc/ba-elf/4.7.4/../../../../ba-elf/lib/mcpu_jn51xx_sizeopt\libm.a(lib_a-s_floor.o)

.debug_line     0x0000000000000000     0x4098
 .debug_line    0x0000000000000000      0x154 c:/nxp/bstudio_nxp/sdk/tools/ba-elf-ba2-r36379/bin/../lib/gcc/ba-elf/4.7.4/../../../../ba-elf/lib/mcpu_jn51xx_sizeopt\libc.a(lib_a-memcmp.o)
 .debug_line    0x0000000000000154      0x148 c:/nxp/bstudio_nxp/sdk/tools/ba-elf-ba2-r36379/bin/../lib/gcc/ba-elf/4.7.4/../../../../ba-elf/lib/mcpu_jn51xx_sizeopt\libc.a(lib_a-memcpy.o)
 .debug_line    0x000000000000029c      0x13e c:/nxp/bstudio_nxp/sdk/tools/ba-elf-ba2-r36379/bin/../lib/gcc/ba-elf/4.7.4/../../../../ba-elf/lib/mcpu_jn51xx_sizeopt\libc.a(lib_a-memset.o)
 .debug_line    0x00000000000003da      0x12e c:/nxp/bstudio_nxp/sdk/tools/ba-elf-ba2-r36379/bin/../lib/gcc/ba-elf/4.7.4/../../../../ba-elf/lib/mcpu_jn51xx_sizeopt\libc.a(lib_a-strlen.o)
 .debug_line    0x0000000000000508      0x160 c:/nxp/bstudio_nxp/sdk/tools/ba-elf-ba2-r36379/bin/../lib/gcc/ba-elf/4.7.4/../../../../ba-elf/lib/mcpu_jn51xx_sizeopt\libc.a(lib_a-strncpy.o)
 .debug_line    0x0000000000000668      0x47b c:/nxp/bstudio_nxp/sdk/tools/ba-elf-ba2-r36379/bin/../lib/gcc/ba-elf/4.7.4/mcpu_jn51xx_sizeopt\libgcc.a(__udivsi3.o)
 .debug_line    0x0000000000000ae3       0xbb c:/nxp/bstudio_nxp/sdk/tools/ba-elf-ba2-r36379/bin/../lib/gcc/ba-elf/4.7.4/mcpu_jn51xx_sizeopt\libgcc.a(__divsi3.o)
 .debug_line    0x0000000000000b9e      0x3c7 c:/nxp/bstudio_nxp/sdk/tools/ba-elf-ba2-r36379/bin/../lib/gcc/ba-elf/4.7.4/mcpu_jn51xx_sizeopt\libgcc.a(__umodsi3.o)
 .debug_line    0x0000000000000f65       0xa3 c:/nxp/bstudio_nxp/sdk/tools/ba-elf-ba2-r36379/bin/../lib/gcc/ba-elf/4.7.4/mcpu_jn51xx_sizeopt\libgcc.a(__modsi3.o)
 .debug_line    0x0000000000001008       0x9f c:/nxp/bstudio_nxp/sdk/tools/ba-elf-ba2-r36379/bin/../lib/gcc/ba-elf/4.7.4/mcpu_jn51xx_sizeopt\libgcc.a(_fixunsdfsi.o)
 .debug_line    0x00000000000010a7      0x20e c:/nxp/bstudio_nxp/sdk/tools/ba-elf-ba2-r36379/bin/../lib/gcc/ba-elf/4.7.4/mcpu_jn51xx_sizeopt\libgcc.a(_divdi3.o)
 .debug_line    0x00000000000012b5      0x1b7 c:/nxp/bstudio_nxp/sdk/tools/ba-elf-ba2-r36379/bin/../lib/gcc/ba-elf/4.7.4/mcpu_jn51xx_sizeopt\libgcc.a(_udivdi3.o)
 .debug_line    0x000000000000146c      0x448 c:/nxp/bstudio_nxp/sdk/tools/ba-elf-ba2-r36379/bin/../lib/gcc/ba-elf/4.7.4/mcpu_jn51xx_sizeopt\libgcc.a(addsf3.o)
 .debug_line    0x00000000000018b4      0x1b4 c:/nxp/bstudio_nxp/sdk/tools/ba-elf-ba2-r36379/bin/../lib/gcc/ba-elf/4.7.4/mcpu_jn51xx_sizeopt\libgcc.a(divsf3.o)
 .debug_line    0x0000000000001a68       0xe5 c:/nxp/bstudio_nxp/sdk/tools/ba-elf-ba2-r36379/bin/../lib/gcc/ba-elf/4.7.4/mcpu_jn51xx_sizeopt\libgcc.a(eqsf2.o)
 .debug_line    0x0000000000001b4d      0x115 c:/nxp/bstudio_nxp/sdk/tools/ba-elf-ba2-r36379/bin/../lib/gcc/ba-elf/4.7.4/mcpu_jn51xx_sizeopt\libgcc.a(gesf2.o)
 .debug_line    0x0000000000001c62      0x115 c:/nxp/bstudio_nxp/sdk/tools/ba-elf-ba2-r36379/bin/../lib/gcc/ba-elf/4.7.4/mcpu_jn51xx_sizeopt\libgcc.a(lesf2.o)
 .debug_line    0x0000000000001d77      0x199 c:/nxp/bstudio_nxp/sdk/tools/ba-elf-ba2-r36379/bin/../lib/gcc/ba-elf/4.7.4/mcpu_jn51xx_sizeopt\libgcc.a(mulsf3.o)
 .debug_line    0x0000000000001f10      0x475 c:/nxp/bstudio_nxp/sdk/tools/ba-elf-ba2-r36379/bin/../lib/gcc/ba-elf/4.7.4/mcpu_jn51xx_sizeopt\libgcc.a(subsf3.o)
 .debug_line    0x0000000000002385       0xc8 c:/nxp/bstudio_nxp/sdk/tools/ba-elf-ba2-r36379/bin/../lib/gcc/ba-elf/4.7.4/mcpu_jn51xx_sizeopt\libgcc.a(fixsfsi.o)
 .debug_line    0x000000000000244d      0x10e c:/nxp/bstudio_nxp/sdk/tools/ba-elf-ba2-r36379/bin/../lib/gcc/ba-elf/4.7.4/mcpu_jn51xx_sizeopt\libgcc.a(floatunsisf.o)
 .debug_line    0x000000000000255b      0x63d c:/nxp/bstudio_nxp/sdk/tools/ba-elf-ba2-r36379/bin/../lib/gcc/ba-elf/4.7.4/mcpu_jn51xx_sizeopt\libgcc.a(adddf3.o)
 .debug_line    0x0000000000002b98      0x3b5 c:/nxp/bstudio_nxp/sdk/tools/ba-elf-ba2-r36379/bin/../lib/gcc/ba-elf/4.7.4/mcpu_jn51xx_sizeopt\libgcc.a(divdf3.o)
 .debug_line    0x0000000000002f4d      0x15f c:/nxp/bstudio_nxp/sdk/tools/ba-elf-ba2-r36379/bin/../lib/gcc/ba-elf/4.7.4/mcpu_jn51xx_sizeopt\libgcc.a(gedf2.o)
 .debug_line    0x00000000000030ac      0x269 c:/nxp/bstudio_nxp/sdk/tools/ba-elf-ba2-r36379/bin/../lib/gcc/ba-elf/4.7.4/mcpu_jn51xx_sizeopt\libgcc.a(muldf3.o)
 .debug_line    0x0000000000003315      0x656 c:/nxp/bstudio_nxp/sdk/tools/ba-elf-ba2-r36379/bin/../lib/gcc/ba-elf/4.7.4/mcpu_jn51xx_sizeopt\libgcc.a(subdf3.o)
 .debug_line    0x000000000000396b       0xc8 c:/nxp/bstudio_nxp/sdk/tools/ba-elf-ba2-r36379/bin/../lib/gcc/ba-elf/4.7.4/mcpu_jn51xx_sizeopt\libgcc.a(fixdfsi.o)
 .debug_line    0x0000000000003a33      0x10b c:/nxp/bstudio_nxp/sdk/tools/ba-elf-ba2-r36379/bin/../lib/gcc/ba-elf/4.7.4/mcpu_jn51xx_sizeopt\libgcc.a(extendsfdf2.o)
 .debug_line    0x0000000000003b3e      0x18a c:/nxp/bstudio_nxp/sdk/tools/ba-elf-ba2-r36379/bin/../lib/gcc/ba-elf/4.7.4/mcpu_jn51xx_sizeopt\libgcc.a(truncdfsf2.o)
 .debug_line    0x0000000000003cc8      0x19d c:/NXP/bstudio_nxp/sdk/JN-SW-4168/Components/Library\libBoot_JN516x.a(ExceptionHandler.o)
 .debug_line    0x0000000000003e65      0x233 c:/nxp/bstudio_nxp/sdk/tools/ba-elf-ba2-r36379/bin/../lib/gcc/ba-elf/4.7.4/../../../../ba-elf/lib/mcpu_jn51xx_sizeopt\libm.a(lib_a-s_floor.o)

.debug_str      0x0000000000000000      0xa56
 .debug_str     0x0000000000000000      0x119 c:/nxp/bstudio_nxp/sdk/tools/ba-elf-ba2-r36379/bin/../lib/gcc/ba-elf/4.7.4/../../../../ba-elf/lib/mcpu_jn51xx_sizeopt\libc.a(lib_a-memcmp.o)
                                        0x152 (size before relaxing)
 .debug_str     0x0000000000000119       0x5d c:/nxp/bstudio_nxp/sdk/tools/ba-elf-ba2-r36379/bin/../lib/gcc/ba-elf/4.7.4/../../../../ba-elf/lib/mcpu_jn51xx_sizeopt\libc.a(lib_a-memcpy.o)
                                        0x166 (size before relaxing)
 .debug_str     0x0000000000000176       0x49 c:/nxp/bstudio_nxp/sdk/tools/ba-elf-ba2-r36379/bin/../lib/gcc/ba-elf/4.7.4/../../../../ba-elf/lib/mcpu_jn51xx_sizeopt\libc.a(lib_a-memset.o)
                                        0x152 (size before relaxing)
 .debug_str     0x00000000000001bf       0x4f c:/nxp/bstudio_nxp/sdk/tools/ba-elf-ba2-r36379/bin/../lib/gcc/ba-elf/4.7.4/../../../../ba-elf/lib/mcpu_jn51xx_sizeopt\libc.a(lib_a-strlen.o)
                                        0x158 (size before relaxing)
 .debug_str     0x000000000000020e       0x5d c:/nxp/bstudio_nxp/sdk/tools/ba-elf-ba2-r36379/bin/../lib/gcc/ba-elf/4.7.4/../../../../ba-elf/lib/mcpu_jn51xx_sizeopt\libc.a(lib_a-strncpy.o)
                                        0x170 (size before relaxing)
 .debug_str     0x000000000000026b       0xc2 c:/nxp/bstudio_nxp/sdk/tools/ba-elf-ba2-r36379/bin/../lib/gcc/ba-elf/4.7.4/mcpu_jn51xx_sizeopt\libgcc.a(_fixunsdfsi.o)
                                        0x166 (size before relaxing)
 .debug_str     0x000000000000032d       0x7a c:/nxp/bstudio_nxp/sdk/tools/ba-elf-ba2-r36379/bin/../lib/gcc/ba-elf/4.7.4/mcpu_jn51xx_sizeopt\libgcc.a(_divdi3.o)
                                        0x1d3 (size before relaxing)
 .debug_str     0x00000000000003a7        0xa c:/nxp/bstudio_nxp/sdk/tools/ba-elf-ba2-r36379/bin/../lib/gcc/ba-elf/4.7.4/mcpu_jn51xx_sizeopt\libgcc.a(_udivdi3.o)
                                        0x1d4 (size before relaxing)
 .debug_str     0x00000000000003b1       0xa8 c:/nxp/bstudio_nxp/sdk/tools/ba-elf-ba2-r36379/bin/../lib/gcc/ba-elf/4.7.4/mcpu_jn51xx_sizeopt\libgcc.a(addsf3.o)
                                        0x191 (size before relaxing)
 .debug_str     0x0000000000000459       0x48 c:/nxp/bstudio_nxp/sdk/tools/ba-elf-ba2-r36379/bin/../lib/gcc/ba-elf/4.7.4/mcpu_jn51xx_sizeopt\libgcc.a(divsf3.o)
                                        0x15e (size before relaxing)
 .debug_str     0x00000000000004a1       0x3f c:/nxp/bstudio_nxp/sdk/tools/ba-elf-ba2-r36379/bin/../lib/gcc/ba-elf/4.7.4/mcpu_jn51xx_sizeopt\libgcc.a(eqsf2.o)
                                        0x14f (size before relaxing)
 .debug_str     0x00000000000004e0       0x57 c:/nxp/bstudio_nxp/sdk/tools/ba-elf-ba2-r36379/bin/../lib/gcc/ba-elf/4.7.4/mcpu_jn51xx_sizeopt\libgcc.a(gesf2.o)
                                        0x167 (size before relaxing)
 .debug_str     0x0000000000000537       0x3f c:/nxp/bstudio_nxp/sdk/tools/ba-elf-ba2-r36379/bin/../lib/gcc/ba-elf/4.7.4/mcpu_jn51xx_sizeopt\libgcc.a(lesf2.o)
                                        0x167 (size before relaxing)
 .debug_str     0x0000000000000576       0x55 c:/nxp/bstudio_nxp/sdk/tools/ba-elf-ba2-r36379/bin/../lib/gcc/ba-elf/4.7.4/mcpu_jn51xx_sizeopt\libgcc.a(mulsf3.o)
                                        0x194 (size before relaxing)
 .debug_str     0x00000000000005cb       0x41 c:/nxp/bstudio_nxp/sdk/tools/ba-elf-ba2-r36379/bin/../lib/gcc/ba-elf/4.7.4/mcpu_jn51xx_sizeopt\libgcc.a(subsf3.o)
                                        0x191 (size before relaxing)
 .debug_str     0x000000000000060c       0x4b c:/nxp/bstudio_nxp/sdk/tools/ba-elf-ba2-r36379/bin/../lib/gcc/ba-elf/4.7.4/mcpu_jn51xx_sizeopt\libgcc.a(fixsfsi.o)
                                        0x16a (size before relaxing)
 .debug_str     0x0000000000000657       0x58 c:/nxp/bstudio_nxp/sdk/tools/ba-elf-ba2-r36379/bin/../lib/gcc/ba-elf/4.7.4/mcpu_jn51xx_sizeopt\libgcc.a(floatunsisf.o)
                                        0x170 (size before relaxing)
 .debug_str     0x00000000000006af       0x77 c:/nxp/bstudio_nxp/sdk/tools/ba-elf-ba2-r36379/bin/../lib/gcc/ba-elf/4.7.4/mcpu_jn51xx_sizeopt\libgcc.a(adddf3.o)
                                        0x1b7 (size before relaxing)
 .debug_str     0x0000000000000726       0x6b c:/nxp/bstudio_nxp/sdk/tools/ba-elf-ba2-r36379/bin/../lib/gcc/ba-elf/4.7.4/mcpu_jn51xx_sizeopt\libgcc.a(divdf3.o)
                                        0x1f6 (size before relaxing)
 .debug_str     0x0000000000000791       0x3f c:/nxp/bstudio_nxp/sdk/tools/ba-elf-ba2-r36379/bin/../lib/gcc/ba-elf/4.7.4/mcpu_jn51xx_sizeopt\libgcc.a(gedf2.o)
                                        0x183 (size before relaxing)
 .debug_str     0x00000000000007d0       0x72 c:/nxp/bstudio_nxp/sdk/tools/ba-elf-ba2-r36379/bin/../lib/gcc/ba-elf/4.7.4/mcpu_jn51xx_sizeopt\libgcc.a(muldf3.o)
                                        0x1e8 (size before relaxing)
 .debug_str     0x0000000000000842       0x41 c:/nxp/bstudio_nxp/sdk/tools/ba-elf-ba2-r36379/bin/../lib/gcc/ba-elf/4.7.4/mcpu_jn51xx_sizeopt\libgcc.a(subdf3.o)
                                        0x1b7 (size before relaxing)
 .debug_str     0x0000000000000883       0x43 c:/nxp/bstudio_nxp/sdk/tools/ba-elf-ba2-r36379/bin/../lib/gcc/ba-elf/4.7.4/mcpu_jn51xx_sizeopt\libgcc.a(fixdfsi.o)
                                        0x17c (size before relaxing)
 .debug_str     0x00000000000008c6       0x4b c:/nxp/bstudio_nxp/sdk/tools/ba-elf-ba2-r36379/bin/../lib/gcc/ba-elf/4.7.4/mcpu_jn51xx_sizeopt\libgcc.a(extendsfdf2.o)
                                        0x18b (size before relaxing)
 .debug_str     0x0000000000000911       0x49 c:/nxp/bstudio_nxp/sdk/tools/ba-elf-ba2-r36379/bin/../lib/gcc/ba-elf/4.7.4/mcpu_jn51xx_sizeopt\libgcc.a(truncdfsf2.o)
                                        0x189 (size before relaxing)
 .debug_str     0x000000000000095a       0xfc c:/nxp/bstudio_nxp/sdk/tools/ba-elf-ba2-r36379/bin/../lib/gcc/ba-elf/4.7.4/../../../../ba-elf/lib/mcpu_jn51xx_sizeopt\libm.a(lib_a-s_floor.o)
                                        0x1a7 (size before relaxing)

.debug_frame    0x0000000000000000      0x3e4
 .debug_frame   0x0000000000000000       0x20 c:/nxp/bstudio_nxp/sdk/tools/ba-elf-ba2-r36379/bin/../lib/gcc/ba-elf/4.7.4/../../../../ba-elf/lib/mcpu_jn51xx_sizeopt\libc.a(lib_a-memcmp.o)
 .debug_frame   0x0000000000000020       0x20 c:/nxp/bstudio_nxp/sdk/tools/ba-elf-ba2-r36379/bin/../lib/gcc/ba-elf/4.7.4/../../../../ba-elf/lib/mcpu_jn51xx_sizeopt\libc.a(lib_a-memcpy.o)
 .debug_frame   0x0000000000000040       0x20 c:/nxp/bstudio_nxp/sdk/tools/ba-elf-ba2-r36379/bin/../lib/gcc/ba-elf/4.7.4/../../../../ba-elf/lib/mcpu_jn51xx_sizeopt\libc.a(lib_a-memset.o)
 .debug_frame   0x0000000000000060       0x20 c:/nxp/bstudio_nxp/sdk/tools/ba-elf-ba2-r36379/bin/../lib/gcc/ba-elf/4.7.4/../../../../ba-elf/lib/mcpu_jn51xx_sizeopt\libc.a(lib_a-strlen.o)
 .debug_frame   0x0000000000000080       0x20 c:/nxp/bstudio_nxp/sdk/tools/ba-elf-ba2-r36379/bin/../lib/gcc/ba-elf/4.7.4/../../../../ba-elf/lib/mcpu_jn51xx_sizeopt\libc.a(lib_a-strncpy.o)
 .debug_frame   0x00000000000000a0       0x2c c:/nxp/bstudio_nxp/sdk/tools/ba-elf-ba2-r36379/bin/../lib/gcc/ba-elf/4.7.4/mcpu_jn51xx_sizeopt\libgcc.a(_fixunsdfsi.o)
 .debug_frame   0x00000000000000cc       0x2c c:/nxp/bstudio_nxp/sdk/tools/ba-elf-ba2-r36379/bin/../lib/gcc/ba-elf/4.7.4/mcpu_jn51xx_sizeopt\libgcc.a(addsf3.o)
 .debug_frame   0x00000000000000f8       0x30 c:/nxp/bstudio_nxp/sdk/tools/ba-elf-ba2-r36379/bin/../lib/gcc/ba-elf/4.7.4/mcpu_jn51xx_sizeopt\libgcc.a(divsf3.o)
 .debug_frame   0x0000000000000128       0x2c c:/nxp/bstudio_nxp/sdk/tools/ba-elf-ba2-r36379/bin/../lib/gcc/ba-elf/4.7.4/mcpu_jn51xx_sizeopt\libgcc.a(eqsf2.o)
 .debug_frame   0x0000000000000154       0x2c c:/nxp/bstudio_nxp/sdk/tools/ba-elf-ba2-r36379/bin/../lib/gcc/ba-elf/4.7.4/mcpu_jn51xx_sizeopt\libgcc.a(gesf2.o)
 .debug_frame   0x0000000000000180       0x2c c:/nxp/bstudio_nxp/sdk/tools/ba-elf-ba2-r36379/bin/../lib/gcc/ba-elf/4.7.4/mcpu_jn51xx_sizeopt\libgcc.a(lesf2.o)
 .debug_frame   0x00000000000001ac       0x30 c:/nxp/bstudio_nxp/sdk/tools/ba-elf-ba2-r36379/bin/../lib/gcc/ba-elf/4.7.4/mcpu_jn51xx_sizeopt\libgcc.a(mulsf3.o)
 .debug_frame   0x00000000000001dc       0x2c c:/nxp/bstudio_nxp/sdk/tools/ba-elf-ba2-r36379/bin/../lib/gcc/ba-elf/4.7.4/mcpu_jn51xx_sizeopt\libgcc.a(subsf3.o)
 .debug_frame   0x0000000000000208       0x20 c:/nxp/bstudio_nxp/sdk/tools/ba-elf-ba2-r36379/bin/../lib/gcc/ba-elf/4.7.4/mcpu_jn51xx_sizeopt\libgcc.a(fixsfsi.o)
 .debug_frame   0x0000000000000228       0x20 c:/nxp/bstudio_nxp/sdk/tools/ba-elf-ba2-r36379/bin/../lib/gcc/ba-elf/4.7.4/mcpu_jn51xx_sizeopt\libgcc.a(floatunsisf.o)
 .debug_frame   0x0000000000000248       0x30 c:/nxp/bstudio_nxp/sdk/tools/ba-elf-ba2-r36379/bin/../lib/gcc/ba-elf/4.7.4/mcpu_jn51xx_sizeopt\libgcc.a(adddf3.o)
 .debug_frame   0x0000000000000278       0x34 c:/nxp/bstudio_nxp/sdk/tools/ba-elf-ba2-r36379/bin/../lib/gcc/ba-elf/4.7.4/mcpu_jn51xx_sizeopt\libgcc.a(divdf3.o)
 .debug_frame   0x00000000000002ac       0x34 c:/nxp/bstudio_nxp/sdk/tools/ba-elf-ba2-r36379/bin/../lib/gcc/ba-elf/4.7.4/mcpu_jn51xx_sizeopt\libgcc.a(gedf2.o)
 .debug_frame   0x00000000000002e0       0x34 c:/nxp/bstudio_nxp/sdk/tools/ba-elf-ba2-r36379/bin/../lib/gcc/ba-elf/4.7.4/mcpu_jn51xx_sizeopt\libgcc.a(muldf3.o)
 .debug_frame   0x0000000000000314       0x30 c:/nxp/bstudio_nxp/sdk/tools/ba-elf-ba2-r36379/bin/../lib/gcc/ba-elf/4.7.4/mcpu_jn51xx_sizeopt\libgcc.a(subdf3.o)
 .debug_frame   0x0000000000000344       0x20 c:/nxp/bstudio_nxp/sdk/tools/ba-elf-ba2-r36379/bin/../lib/gcc/ba-elf/4.7.4/mcpu_jn51xx_sizeopt\libgcc.a(fixdfsi.o)
 .debug_frame   0x0000000000000364       0x20 c:/nxp/bstudio_nxp/sdk/tools/ba-elf-ba2-r36379/bin/../lib/gcc/ba-elf/4.7.4/mcpu_jn51xx_sizeopt\libgcc.a(extendsfdf2.o)
 .debug_frame   0x0000000000000384       0x2c c:/nxp/bstudio_nxp/sdk/tools/ba-elf-ba2-r36379/bin/../lib/gcc/ba-elf/4.7.4/mcpu_jn51xx_sizeopt\libgcc.a(truncdfsf2.o)
 .debug_frame   0x00000000000003b0       0x34 c:/nxp/bstudio_nxp/sdk/tools/ba-elf-ba2-r36379/bin/../lib/gcc/ba-elf/4.7.4/../../../../ba-elf/lib/mcpu_jn51xx_sizeopt\libm.a(lib_a-s_floor.o)

.debug_ranges   0x0000000000000000      0x720
 .debug_ranges  0x0000000000000000       0x80 c:/nxp/bstudio_nxp/sdk/tools/ba-elf-ba2-r36379/bin/../lib/gcc/ba-elf/4.7.4/mcpu_jn51xx_sizeopt\libgcc.a(_divdi3.o)
 .debug_ranges  0x0000000000000080       0xa0 c:/nxp/bstudio_nxp/sdk/tools/ba-elf-ba2-r36379/bin/../lib/gcc/ba-elf/4.7.4/mcpu_jn51xx_sizeopt\libgcc.a(_udivdi3.o)
 .debug_ranges  0x0000000000000120       0x78 c:/nxp/bstudio_nxp/sdk/tools/ba-elf-ba2-r36379/bin/../lib/gcc/ba-elf/4.7.4/mcpu_jn51xx_sizeopt\libgcc.a(addsf3.o)
 .debug_ranges  0x0000000000000198       0x18 c:/nxp/bstudio_nxp/sdk/tools/ba-elf-ba2-r36379/bin/../lib/gcc/ba-elf/4.7.4/mcpu_jn51xx_sizeopt\libgcc.a(divsf3.o)
 .debug_ranges  0x00000000000001b0       0x40 c:/nxp/bstudio_nxp/sdk/tools/ba-elf-ba2-r36379/bin/../lib/gcc/ba-elf/4.7.4/mcpu_jn51xx_sizeopt\libgcc.a(eqsf2.o)
 .debug_ranges  0x00000000000001f0       0x38 c:/nxp/bstudio_nxp/sdk/tools/ba-elf-ba2-r36379/bin/../lib/gcc/ba-elf/4.7.4/mcpu_jn51xx_sizeopt\libgcc.a(gesf2.o)
 .debug_ranges  0x0000000000000228       0x40 c:/nxp/bstudio_nxp/sdk/tools/ba-elf-ba2-r36379/bin/../lib/gcc/ba-elf/4.7.4/mcpu_jn51xx_sizeopt\libgcc.a(lesf2.o)
 .debug_ranges  0x0000000000000268       0x40 c:/nxp/bstudio_nxp/sdk/tools/ba-elf-ba2-r36379/bin/../lib/gcc/ba-elf/4.7.4/mcpu_jn51xx_sizeopt\libgcc.a(mulsf3.o)
 .debug_ranges  0x00000000000002a8       0x78 c:/nxp/bstudio_nxp/sdk/tools/ba-elf-ba2-r36379/bin/../lib/gcc/ba-elf/4.7.4/mcpu_jn51xx_sizeopt\libgcc.a(subsf3.o)
 .debug_ranges  0x0000000000000320       0x80 c:/nxp/bstudio_nxp/sdk/tools/ba-elf-ba2-r36379/bin/../lib/gcc/ba-elf/4.7.4/mcpu_jn51xx_sizeopt\libgcc.a(adddf3.o)
 .debug_ranges  0x00000000000003a0       0xb0 c:/nxp/bstudio_nxp/sdk/tools/ba-elf-ba2-r36379/bin/../lib/gcc/ba-elf/4.7.4/mcpu_jn51xx_sizeopt\libgcc.a(divdf3.o)
 .debug_ranges  0x0000000000000450       0x58 c:/nxp/bstudio_nxp/sdk/tools/ba-elf-ba2-r36379/bin/../lib/gcc/ba-elf/4.7.4/mcpu_jn51xx_sizeopt\libgcc.a(gedf2.o)
 .debug_ranges  0x00000000000004a8      0x1a8 c:/nxp/bstudio_nxp/sdk/tools/ba-elf-ba2-r36379/bin/../lib/gcc/ba-elf/4.7.4/mcpu_jn51xx_sizeopt\libgcc.a(muldf3.o)
 .debug_ranges  0x0000000000000650       0x78 c:/nxp/bstudio_nxp/sdk/tools/ba-elf-ba2-r36379/bin/../lib/gcc/ba-elf/4.7.4/mcpu_jn51xx_sizeopt\libgcc.a(subdf3.o)
 .debug_ranges  0x00000000000006c8       0x18 c:/nxp/bstudio_nxp/sdk/tools/ba-elf-ba2-r36379/bin/../lib/gcc/ba-elf/4.7.4/mcpu_jn51xx_sizeopt\libgcc.a(fixdfsi.o)
 .debug_ranges  0x00000000000006e0       0x18 c:/nxp/bstudio_nxp/sdk/tools/ba-elf-ba2-r36379/bin/../lib/gcc/ba-elf/4.7.4/mcpu_jn51xx_sizeopt\libgcc.a(extendsfdf2.o)
 .debug_ranges  0x00000000000006f8       0x28 c:/nxp/bstudio_nxp/sdk/tools/ba-elf-ba2-r36379/bin/../lib/gcc/ba-elf/4.7.4/mcpu_jn51xx_sizeopt\libgcc.a(truncdfsf2.o)
